(dp0
I1216559
(dp1
S'elements'
p2
c__builtin__
set
p3
((lp4
S'Transportation'
p5
aS'Nicaragua'
p6
aS'North_America'
p7
atp8
Rp9
sS'expired_at'
p10
cdatetime
date
p11
(S'\x07\xe1\x02\x0c'
p12
tp13
Rp14
ssI1208371
(dp15
g2
g3
((lp16
S'Kenya'
p17
aS'Africa'
p18
aS'Agriculture'
p19
atp20
Rp21
sg10
g11
(S'\x07\xe1\x02\x0c'
p22
tp23
Rp24
ssI1216186
(dp25
g2
g3
((lp26
S'Youth'
p27
aS'Guatemala'
p28
aS'Retail'
p29
ag7
atp30
Rp31
sg10
g11
(S'\x07\xe1\x02\x0c'
p32
tp33
Rp34
ssI1218677
(dp35
g2
g3
((lp36
S'Food'
p37
ag18
aS'Burkina Faso'
p38
atp39
Rp40
sg10
g11
(S'\x07\xe1\x02\r'
p41
tp42
Rp43
ssI1216646
(dp44
g2
g3
((lp45
g19
ag18
aS'Mali'
p46
atp47
Rp48
sg10
g11
(S'\x07\xe1\x02\r'
p49
tp50
Rp51
ssI1210506
(dp52
g2
g3
((lp53
S'Unknown'
p54
ag19
aS'Congo (Dem. Rep.)'
p55
atp56
Rp57
sg10
g11
(S'\x07\xe1\x02\x0c'
p58
tp59
Rp60
ssI1214604
(dp61
g2
g3
((lp62
g37
ag18
ag46
atp63
Rp64
sg10
g11
(S'\x07\xe1\x02\r'
p65
tp66
Rp67
ssI1204389
(dp68
g2
g3
((lp69
g37
aS'Pakistan'
p70
aS'Asia'
p71
aS'Underfunded Areas'
p72
atp73
Rp74
sg10
g11
(S'\x07\xe1\x02\x0c'
p75
tp76
Rp77
ssI1218732
(dp78
g2
g3
((lp79
g37
aS'South_America'
p80
aS'Peru'
p81
ag72
atp82
Rp83
sg10
g11
(S'\x07\xe1\x02\x0c'
p84
tp85
Rp86
ssI1204400
(dp87
g2
g3
((lp88
g70
ag72
ag71
aS'Wholesale'
p89
atp90
Rp91
sg10
g11
(S'\x07\xe1\x02\x0c'
p92
tp93
Rp94
ssI1203232
(dp95
g2
g3
((lp96
g37
ag70
ag71
ag72
atp97
Rp98
sg10
g11
(S'\x07\xe1\x02\x0c'
p99
tp100
Rp101
ssI1206156
(dp102
g2
g3
((lp103
S'Clothing'
p104
ag18
aS'Sierra Leone'
p105
atp106
Rp107
sg10
g11
(S'\x07\xe1\x02\r'
p108
tp109
Rp110
ssI1218799
(dp111
g2
g3
((lp112
g37
aS'Haiti'
p113
ag7
atp114
Rp115
sg10
g11
(S'\x07\xe1\x02\x0e'
p116
tp117
Rp118
ssI1214749
(dp119
S'elements'
p120
g3
((lp121
S'Housing'
p122
aS'Indonesia'
p123
aS'Asia'
p124
aS'Water and Sanitation'
p125
atp126
Rp127
sS'expired_at'
p128
g11
(S'\x07\xe1\x02\x0c'
p129
tp130
Rp131
ssI1219300
(dp132
g120
g3
((lp133
S'Tajikistan'
p134
aS'Agriculture'
p135
ag124
atp136
Rp137
sg128
g11
(S'\x07\xe1\x02\r'
p138
tp139
Rp140
ssI1219985
(dp141
g2
g3
((lp142
g70
aS'Health'
p143
ag71
aS'Rural Exclusion'
p144
atp145
Rp146
sg10
g11
(S'\x07\xe1\x02\r'
p147
tp148
Rp149
ssI1202921
(dp150
g2
g3
((lp151
g19
ag18
aS'Uganda'
p152
ag144
atp153
Rp154
sg10
g11
(S'\x07\xe1\x02\x0c'
p155
tp156
Rp157
ssI1202557
(dp158
g2
g3
((lp159
S'Housing'
p160
ag144
ag71
aS'Cambodia'
p161
aS'Vulnerable Groups'
p162
atp163
Rp164
sg10
g11
(S'\x07\xe1\x02\x0c'
p165
tp166
Rp167
ssI1204609
(dp168
S'elements'
p169
g3
((lp170
S'Tajikistan'
p171
aS'Agriculture'
p172
aS'Asia'
p173
atp174
Rp175
sS'expired_at'
p176
g11
(S'\x07\xe1\x02\x0e'
p177
tp178
Rp179
ssI1216905
(dp180
g2
g3
((lp181
g54
ag19
ag55
atp182
Rp183
sg10
g11
(S'\x07\xe1\x02\x0e'
p184
tp185
Rp186
ssI1204631
(dp187
g2
g3
((lp188
g37
aS'Philippines'
p189
ag71
atp190
Rp191
sg10
g11
(S'\x07\xe1\x02\x0c'
p192
tp193
Rp194
ssI1218986
(dp195
g2
g3
((lp196
g17
ag18
ag19
atp197
Rp198
sg10
g11
(S'\x07\xe1\x02\x0c'
p199
tp200
Rp201
ssI1218996
(dp202
g2
g3
((lp203
g37
aS'Start-Up'
p204
aS'Tajikistan'
p205
ag71
atp206
Rp207
sg10
g11
(S'\x07\xe1\x02\x0c'
p208
tp209
Rp210
ssI1212870
(dp211
g2
g3
((lp212
g19
ag18
ag46
atp213
Rp214
sg10
g11
(S'\x07\xe1\x02\x0c'
p215
tp216
Rp217
ssI1219017
(dp218
g2
g3
((lp219
g19
ag205
ag71
atp220
Rp221
sg10
g11
(S'\x07\xe1\x02\x0c'
p222
tp223
Rp224
ssI1204724
(dp225
g2
g3
((lp226
g17
ag18
ag104
atp227
Rp228
sg10
g11
(S'\x07\xe1\x02\x0c'
p229
tp230
Rp231
ssI1219063
(dp232
g2
g3
((lp233
S'Services'
p234
ag205
ag71
atp235
Rp236
sg10
g11
(S'\x07\xe1\x02\x0c'
p237
tp238
Rp239
ssI1219067
(dp240
g2
g3
((lp241
S'Rwanda'
p242
ag18
aS'Construction'
p243
atp244
Rp245
sg10
g11
(S'\x07\xe1\x02\r'
p246
tp247
Rp248
ssI1212930
(dp249
g2
g3
((lp250
g37
ag18
ag46
atp251
Rp252
sg10
g11
(S'\x07\xe1\x02\x0c'
p253
tp254
Rp255
ssI1204769
(dp256
S'elements'
p257
g3
((lp258
S'Vulnerable Groups'
p259
aS'Asia'
p260
aS'Eco-friendly'
p261
aS'Cambodia'
p262
aS'Services'
p263
aS'Rural Exclusion'
p264
atp265
Rp266
sS'expired_at'
p267
g11
(S'\x07\xe1\x02\x0c'
p268
tp269
Rp270
ssI1212963
(dp271
g2
g3
((lp272
g37
ag18
ag46
atp273
Rp274
sg10
g11
(S'\x07\xe1\x02\x0c'
p275
tp276
Rp277
ssI1219108
(dp278
S'elements'
p279
g3
((lp280
S'Agriculture'
p281
aS'Tajikistan'
p282
aS'Asia'
p283
atp284
Rp285
sS'expired_at'
p286
g11
(S'\x07\xe1\x02\r'
p287
tp288
Rp289
ssI1212983
(dp290
g2
g3
((lp291
g19
ag18
ag46
atp292
Rp293
sg10
g11
(S'\x07\xe1\x02\x0c'
p294
tp295
Rp296
ssI1210957
(dp297
g2
g3
((lp298
g37
ag54
ag55
atp299
Rp300
sg10
g11
(S'\x07\xe1\x02\x0c'
p301
tp302
Rp303
ssI1204815
(dp304
g2
g3
((lp305
g37
aS'Togo'
p306
ag18
atp307
Rp308
sg10
g11
(S'\x07\xe1\x02\x0c'
p309
tp310
Rp311
ssI1202771
(dp312
g2
g3
((lp313
g70
ag5
ag71
ag72
atp314
Rp315
sg10
g11
(S'\x07\xe1\x02\x0c'
p316
tp317
Rp318
ssI1203982
(dp319
g2
g3
((lp320
g143
ag205
ag71
atp321
Rp322
sg10
g11
(S'\x07\xe1\x02\x0c'
p323
tp324
Rp325
ssI1206872
(dp326
g120
g3
((lp327
S'Kenya'
p328
aS'Africa'
p329
aS'Green'
p330
ag135
aS'Rural Exclusion'
p331
atp332
Rp333
sg128
g11
(S'\x07\xe1\x02\x0c'
p334
tp335
Rp336
ssI1204860
(dp337
g2
g3
((lp338
S'Europe'
p339
ag234
ag27
aS'Armenia'
p340
atp341
Rp342
sg10
g11
(S'\x07\xe1\x02\x0c'
p343
tp344
Rp345
ssI1208964
(dp346
g2
g3
((lp347
g37
ag18
ag152
ag144
atp348
Rp349
sg10
g11
(S'\x07\xe1\x02\x0c'
p350
tp351
Rp352
ssI1208966
(dp353
S'elements'
p354
g3
((lp355
S'Food'
p356
aS'Togo'
p357
aS'Repeat Borrower'
p358
aS'Africa'
p359
atp360
Rp361
sS'expired_at'
p362
g11
(S'\x07\xe1\x02\x0c'
p363
tp364
Rp365
ssI1219219
(dp366
g2
g3
((lp367
g160
ag205
ag71
atp368
Rp369
sg10
g11
(S'\x07\xe1\x02\r'
p370
tp371
Rp372
ssI1220377
(dp373
S'elements'
p374
g3
((lp375
S'Pakistan'
p376
aS'Arts'
p377
aS'Rural Exclusion'
p378
aS'Asia'
p379
aS'Woman Owned Biz'
p380
atp381
Rp382
sS'expired_at'
p383
g11
(S'\x07\xe1\x02\r'
p384
tp385
Rp386
ssI1202850
(dp387
g2
g3
((lp388
g37
ag17
ag18
atp389
Rp390
sg10
g11
(S'\x07\xe1\x02\x0c'
p391
tp392
Rp393
ssI1219248
(dp394
g2
g3
((lp395
g234
ag205
ag71
atp396
Rp397
sg10
g11
(S'\x07\xe1\x02\r'
p398
tp399
Rp400
ssI1204921
(dp401
g354
g3
((lp402
S'Youth'
p403
aS'Repeat Borrower'
p404
aS'Education'
p405
aS'Lebanon'
p406
aS'Asia'
p407
atp408
Rp409
sg362
g11
(S'\x07\xe1\x02\x0c'
p410
tp411
Rp412
ssI1219271
(dp413
g2
g3
((lp414
g160
ag205
ag71
atp415
Rp416
sg10
g11
(S'\x07\xe1\x02\r'
p417
tp418
Rp419
ssI1204936
(dp420
g279
g3
((lp421
S'Kenya'
p422
aS'Africa'
p423
ag281
aS'Rural Exclusion'
p424
atp425
Rp426
sg286
g11
(S'\x07\xe1\x02\x0c'
p427
tp428
Rp429
ssI1219277
(dp430
g257
g3
((lp431
g263
aS'Kenya'
p432
aS'Africa'
p433
aS'Eco-friendly'
p434
atp435
Rp436
sg267
g11
(S'\x07\xe1\x02\r'
p437
tp438
Rp439
ssI1219278
(dp440
g2
g3
((lp441
g37
ag144
ag71
ag161
ag162
atp442
Rp443
sg10
g11
(S'\x07\xe1\x02\r'
p444
tp445
Rp446
ssI1219281
(dp447
g2
g3
((lp448
g37
ag144
ag71
ag161
ag162
atp449
Rp450
sg10
g11
(S'\x07\xe1\x02\r'
p451
tp452
Rp453
ssI1219282
(dp454
g2
g3
((lp455
S'Higher Education'
p456
aS'Education'
p457
ag205
ag71
atp458
Rp459
sg10
g11
(S'\x07\xe1\x02\r'
p460
tp461
Rp462
ssI1204964
(dp463
g2
g3
((lp464
g27
ag457
aS'Lebanon'
p465
ag71
atp466
Rp467
sg10
g11
(S'\x07\xe1\x02\x0c'
p468
tp469
Rp470
ssI1204969
(dp471
g279
g3
((lp472
S'Education'
p473
aS'Lebanon'
p474
aS'Vulnerable Groups'
p475
ag283
atp476
Rp477
sg286
g11
(S'\x07\xe1\x02\x0c'
p478
tp479
Rp480
ssI1219308
(dp481
g2
g3
((lp482
g456
ag457
ag205
ag71
atp483
Rp484
sg10
g11
(S'\x07\xe1\x02\r'
p485
tp486
Rp487
ssI1209085
(dp488
g2
g3
((lp489
g19
ag18
ag152
ag144
atp490
Rp491
sg10
g11
(S'\x07\xe1\x02\x0c'
p492
tp493
Rp494
ssI1219333
(dp495
g374
g3
((lp496
S'Agriculture'
p497
aS'Tajikistan'
p498
ag379
aS'Woman Owned Biz'
p499
atp500
Rp501
sg383
g11
(S'\x07\xe1\x02\r'
p502
tp503
Rp504
ssI1219338
(dp505
g2
g3
((lp506
S'Nigeria'
p507
ag457
ag18
ag144
atp508
Rp509
sg10
g11
(S'\x07\xe1\x02\x0c'
p510
tp511
Rp512
ssI1219339
(dp513
g2
g3
((lp514
g507
ag457
ag18
ag144
atp515
Rp516
sg10
g11
(S'\x07\xe1\x02\x0c'
p517
tp518
Rp519
ssI1219357
(dp520
g2
g3
((lp521
g143
ag205
ag71
atp522
Rp523
sg10
g11
(S'\x07\xe1\x02\r'
p524
tp525
Rp526
ssI1219365
(dp527
g2
g3
((lp528
g17
ag18
ag19
ag144
atp529
Rp530
sg10
g11
(S'\x07\xe1\x02\r'
p531
tp532
Rp533
ssI1209129
(dp534
g2
g3
((lp535
g19
ag18
ag46
atp536
Rp537
sg10
g11
(S'\x07\xe1\x02\x0c'
p538
tp539
Rp540
ssI1219377
(dp541
g374
g3
((lp542
S'Kenya'
p543
ag378
aS'Africa'
p544
ag497
aS'Woman Owned Biz'
p545
atp546
Rp547
sg383
g11
(S'\x07\xe1\x02\r'
p548
tp549
Rp550
ssI1211188
(dp551
g2
g3
((lp552
g37
ag18
ag38
atp553
Rp554
sg10
g11
(S'\x07\xe1\x02\x0c'
p555
tp556
Rp557
ssI1219381
(dp558
g2
g3
((lp559
g19
ag205
ag71
atp560
Rp561
sg10
g11
(S'\x07\xe1\x02\x0c'
p562
tp563
Rp564
ssI1219391
(dp565
g2
g3
((lp566
g234
ag18
aS'Mozambique'
p567
aS'Mobile Technology'
p568
atp569
Rp570
sg10
g11
(S'\x07\xe1\x02\x0c'
p571
tp572
Rp573
ssI1219393
(dp574
g169
g3
((lp575
S'Housing'
p576
aS'Africa'
p577
aS'Uganda'
p578
aS'Rural Exclusion'
p579
atp580
Rp581
sg176
g11
(S'\x07\xe1\x02\x0c'
p582
tp583
Rp584
ssI1219394
(dp585
g2
g3
((lp586
g234
ag18
ag567
ag568
atp587
Rp588
sg10
g11
(S'\x07\xe1\x02\x0c'
p589
tp590
Rp591
ssI1205080
(dp592
g2
g3
((lp593
g19
ag18
ag38
ag144
atp594
Rp595
sg10
g11
(S'\x07\xe1\x02\x0c'
p596
tp597
Rp598
ssI1207138
(dp599
g374
g3
((lp600
S'Vulnerable Groups'
p601
aS'Lebanon'
p602
aS'Personal Use'
p603
ag379
aS'Woman Owned Biz'
p604
aS'Refugees\\/Displaced'
p605
atp606
Rp607
sg383
g11
(S'\x07\xe1\x02\x0c'
p608
tp609
Rp610
ssI1219436
(dp611
g2
g3
((lp612
g17
ag18
ag19
ag144
atp613
Rp614
sg10
g11
(S'\x07\xe1\x02\x0c'
p615
tp616
Rp617
ssI1219437
(dp618
g2
g3
((lp619
g456
ag457
ag465
ag71
atp620
Rp621
sg10
g11
(S'\x07\xe1\x02\x0c'
p622
tp623
Rp624
ssI1219443
(dp625
g2
g3
((lp626
g17
ag18
ag19
ag144
atp627
Rp628
sg10
g11
(S'\x07\xe1\x02\x0c'
p629
tp630
Rp631
ssI1219447
(dp632
g374
g3
((lp633
S'Woman Owned Biz'
p634
aS'Retail'
p635
ag602
ag601
ag379
atp636
Rp637
sg383
g11
(S'\x07\xe1\x02\x0c'
p638
tp639
Rp640
ssI1219449
(dp641
g2
g3
((lp642
g17
ag18
ag19
ag144
atp643
Rp644
sg10
g11
(S'\x07\xe1\x02\x0c'
p645
tp646
Rp647
ssI1219452
(dp648
g374
g3
((lp649
S'Services'
p650
aS'Woman Owned Biz'
p651
ag602
ag601
ag379
atp652
Rp653
sg383
g11
(S'\x07\xe1\x02\x0c'
p654
tp655
Rp656
ssI1219459
(dp657
g2
g3
((lp658
g29
ag465
ag162
ag71
atp659
Rp660
sg10
g11
(S'\x07\xe1\x02\x0c'
p661
tp662
Rp663
ssI1219466
(dp664
g2
g3
((lp665
g17
ag18
ag19
ag144
atp666
Rp667
sg10
g11
(S'\x07\xe1\x02\x0c'
p668
tp669
Rp670
ssI1219467
(dp671
g2
g3
((lp672
g234
aS'Innovative Loans'
p673
aS'Zambia'
p674
ag18
ag568
atp675
Rp676
sg10
g11
(S'\x07\xe1\x02\x0c'
p677
tp678
Rp679
ssI1219469
(dp680
g374
g3
((lp681
S'Turkey'
p682
aS'Woman Owned Biz'
p683
ag635
ag379
aS'Underfunded Areas'
p684
atp685
Rp686
sg383
g11
(S'\x07\xe1\x02\x0c'
p687
tp688
Rp689
ssI1209238
(dp690
g2
g3
((lp691
g29
aS'Zimbabwe'
p692
ag18
atp693
Rp694
sg10
g11
(S'\x07\xe1\x02\x0c'
p695
tp696
Rp697
ssI1219479
(dp698
g2
g3
((lp699
g234
ag673
ag674
ag18
ag568
atp700
Rp701
sg10
g11
(S'\x07\xe1\x02\x0c'
p702
tp703
Rp704
ssI1219484
(dp705
g374
g3
((lp706
g544
ag635
aS'Cameroon'
p707
ag601
aS'Woman Owned Biz'
p708
atp709
Rp710
sg383
g11
(S'\x07\xe1\x02\x0c'
p711
tp712
Rp713
ssI1219485
(dp714
g2
g3
((lp715
S'Ghana'
p716
ag29
ag18
atp717
Rp718
sg10
g11
(S'\x07\xe1\x02\x0c'
p719
tp720
Rp721
ssI1219486
(dp722
g374
g3
((lp723
S'Woman Owned Biz'
p724
ag635
ag544
aS'Burkina Faso'
p725
atp726
Rp727
sg383
g11
(S'\x07\xe1\x02\x0c'
p728
tp729
Rp730
ssI1219487
(dp731
g2
g3
((lp732
g5
ag18
ag152
atp733
Rp734
sg10
g11
(S'\x07\xe1\x02\x0c'
p735
tp736
Rp737
ssI1219488
(dp738
g2
g3
((lp739
g234
ag673
ag674
ag18
ag568
atp740
Rp741
sg10
g11
(S'\x07\xe1\x02\x0c'
p742
tp743
Rp744
ssI1219490
(dp745
g2
g3
((lp746
g507
ag457
ag18
ag144
atp747
Rp748
sg10
g11
(S'\x07\xe1\x02\x0c'
p749
tp750
Rp751
ssI1219491
(dp752
g2
g3
((lp753
g507
ag457
ag18
ag144
atp754
Rp755
sg10
g11
(S'\x07\xe1\x02\x0c'
p756
tp757
Rp758
ssI1219492
(dp759
g2
g3
((lp760
g507
ag457
ag18
ag144
atp761
Rp762
sg10
g11
(S'\x07\xe1\x02\x0c'
p763
tp764
Rp765
ssI1219494
(dp766
g2
g3
((lp767
g507
ag457
ag18
ag144
atp768
Rp769
sg10
g11
(S'\x07\xe1\x02\x0c'
p770
tp771
Rp772
ssI1219497
(dp773
g257
g3
((lp774
S'Clothing'
p775
aS'Start-Up'
p776
ag433
aS'Malawi'
p777
aS'Eco-friendly'
p778
atp779
Rp780
sg267
g11
(S'\x07\xe1\x02\x0c'
p781
tp782
Rp783
ssI1219506
(dp784
g2
g3
((lp785
g37
ag18
aS'Cameroon'
p786
ag162
atp787
Rp788
sg10
g11
(S'\x07\xe1\x02\x0c'
p789
tp790
Rp791
ssI1219509
(dp792
g2
g3
((lp793
g19
ag18
ag38
ag144
atp794
Rp795
sg10
g11
(S'\x07\xe1\x02\x0c'
p796
tp797
Rp798
ssI1219511
(dp799
g2
g3
((lp800
g18
ag29
ag786
ag162
atp801
Rp802
sg10
g11
(S'\x07\xe1\x02\x0c'
p803
tp804
Rp805
ssI1219512
(dp806
g2
g3
((lp807
S'Kyrgyzstan'
p808
ag19
ag71
atp809
Rp810
sg10
g11
(S'\x07\xe1\x02\r'
p811
tp812
Rp813
ssI1219515
(dp814
g374
g3
((lp815
S'Woman Owned Biz'
p816
aS'Kyrgyzstan'
p817
ag635
ag379
atp818
Rp819
sg383
g11
(S'\x07\xe1\x02\r'
p820
tp821
Rp822
ssI1219518
(dp823
g2
g3
((lp824
g143
ag465
ag162
ag71
atp825
Rp826
sg10
g11
(S'\x07\xe1\x02\x0c'
p827
tp828
Rp829
ssI1220188
(dp830
g279
g3
((lp831
S'Ghana'
p832
aS'Food'
p833
ag423
atp834
Rp835
sg286
g11
(S'\x07\xe1\x02\r'
p836
tp837
Rp838
ssI1213600
(dp839
g2
g3
((lp840
g37
ag18
ag38
atp841
Rp842
sg10
g11
(S'\x07\xe1\x02\x0c'
p843
tp844
Rp845
ssI1219528
(dp846
g2
g3
((lp847
g716
ag104
ag18
atp848
Rp849
sg10
g11
(S'\x07\xe1\x02\x0c'
p850
tp851
Rp852
ssI1219529
(dp853
g2
g3
((lp854
g716
ag104
ag18
atp855
Rp856
sg10
g11
(S'\x07\xe1\x02\x0c'
p857
tp858
Rp859
ssI1219558
(dp860
g279
g3
((lp861
S'IPA Study'
p862
ag833
aS'Flexible Credit Study'
p863
aS'South_America'
p864
aS'Innovative Loans'
p865
aS'Colombia'
p866
atp867
Rp868
sg286
g11
(S'\x07\xe1\x02\r'
p869
tp870
Rp871
ssI1219562
(dp872
g2
g3
((lp873
S'El Salvador'
p874
ag72
ag19
ag7
ag162
atp875
Rp876
sg10
g11
(S'\x07\xe1\x02\r'
p877
tp878
Rp879
ssI1220095
(dp880
g2
g3
((lp881
g29
ag80
ag81
ag72
atp882
Rp883
sg10
g11
(S'\x07\xe1\x02\x0c'
p884
tp885
Rp886
ssI1219580
(dp887
g2
g3
((lp888
g874
ag29
ag7
ag162
atp889
Rp890
sg10
g11
(S'\x07\xe1\x02\x0c'
p891
tp892
Rp893
ssI1219584
(dp894
g2
g3
((lp895
g80
aS'Bolivia'
p896
ag104
atp897
Rp898
sg10
g11
(S'\x07\xe1\x02\x0c'
p899
tp900
Rp901
ssI1205254
(dp902
g2
g3
((lp903
g19
ag18
ag152
ag144
atp904
Rp905
sg10
g11
(S'\x07\xe1\x02\x0c'
p906
tp907
Rp908
ssI1219591
(dp909
g2
g3
((lp910
S'IPA Study'
p911
ag37
aS'Flexible Credit Study'
p912
ag80
ag673
aS'Colombia'
p913
atp914
Rp915
sg10
g11
(S'\x07\xe1\x02\r'
p916
tp917
Rp918
ssI1219593
(dp919
g257
g3
((lp920
S'El Salvador'
p921
aS'Food'
p922
aS'Eco-friendly'
p923
ag259
aS'North_America'
p924
atp925
Rp926
sg267
g11
(S'\x07\xe1\x02\x0c'
p927
tp928
Rp929
ssI1219596
(dp930
g169
g3
((lp931
S'Honduras'
p932
aS'Higher Education'
p933
aS'Education'
p934
aS'North_America'
p935
atp936
Rp937
sg176
g11
(S'\x07\xe1\x02\x0c'
p938
tp939
Rp940
ssI1219599
(dp941
S'elements'
p942
g3
((lp943
S'El Salvador'
p944
aS'Food'
p945
aS'North_America'
p946
aS'Fabrics'
p947
atp948
Rp949
sS'expired_at'
p950
g11
(S'\x07\xe1\x02\x0c'
p951
tp952
Rp953
ssI1219600
(dp954
g2
g3
((lp955
g456
ag457
aS'Honduras'
p956
ag7
atp957
Rp958
sg10
g11
(S'\x07\xe1\x02\x0c'
p959
tp960
Rp961
ssI1219606
(dp962
g374
g3
((lp963
S'Woman Owned Biz'
p964
aS'Guatemala'
p965
aS'North_America'
p966
ag377
atp967
Rp968
sg383
g11
(S'\x07\xe1\x02\x0c'
p969
tp970
Rp971
ssI1219607
(dp972
g257
g3
((lp973
g921
aS'Retail'
p974
ag924
aS'Eco-friendly'
p975
atp976
Rp977
sg267
g11
(S'\x07\xe1\x02\x0c'
p978
tp979
Rp980
ssI1219608
(dp981
g169
g3
((lp982
S'El Salvador'
p983
aS'Clothing'
p984
ag935
atp985
Rp986
sg176
g11
(S'\x07\xe1\x02\x0c'
p987
tp988
Rp989
ssI1219611
(dp990
g2
g3
((lp991
g29
aS'Oceania'
p992
aS'Samoa'
p993
ag72
atp994
Rp995
sg10
g11
(S'\x07\xe1\x02\x0c'
p996
tp997
Rp998
ssI1219612
(dp999
g2
g3
((lp1000
g5
ag992
ag993
ag72
atp1001
Rp1002
sg10
g11
(S'\x07\xe1\x02\x0c'
p1003
tp1004
Rp1005
ssI1219613
(dp1006
g2
g3
((lp1007
g37
ag992
ag993
ag72
atp1008
Rp1009
sg10
g11
(S'\x07\xe1\x02\x0c'
p1010
tp1011
Rp1012
ssI1219614
(dp1013
g2
g3
((lp1014
g143
ag7
aS'Mexico'
p1015
atp1016
Rp1017
sg10
g11
(S'\x07\xe1\x02\r'
p1018
tp1019
Rp1020
ssI1219616
(dp1021
g2
g3
((lp1022
g80
ag19
ag81
ag72
atp1023
Rp1024
sg10
g11
(S'\x07\xe1\x02\x0c'
p1025
tp1026
Rp1027
ssI1219621
(dp1028
g374
g3
((lp1029
S'Food'
p1030
aS'Woman Owned Biz'
p1031
aS'Oceania'
p1032
aS'Samoa'
p1033
ag684
atp1034
Rp1035
sg383
g11
(S'\x07\xe1\x02\x0c'
p1036
tp1037
Rp1038
ssI1219622
(dp1039
g2
g3
((lp1040
g143
ag7
ag1015
atp1041
Rp1042
sg10
g11
(S'\x07\xe1\x02\x0c'
p1043
tp1044
Rp1045
ssI1219623
(dp1046
g120
g3
((lp1047
S'Oceania'
p1048
aS'Retail'
p1049
aS'Samoa'
p1050
aS'Underfunded Areas'
p1051
atp1052
Rp1053
sg128
g11
(S'\x07\xe1\x02\x0c'
p1054
tp1055
Rp1056
ssI1219624
(dp1057
g2
g3
((lp1058
g29
ag992
ag993
ag72
atp1059
Rp1060
sg10
g11
(S'\x07\xe1\x02\x0c'
p1061
tp1062
Rp1063
ssI1219625
(dp1064
g2
g3
((lp1065
g37
ag992
ag993
ag72
atp1066
Rp1067
sg10
g11
(S'\x07\xe1\x02\x0c'
p1068
tp1069
Rp1070
ssI1219627
(dp1071
g2
g3
((lp1072
g54
ag29
aS'Timor-Leste'
p1073
ag72
atp1074
Rp1075
sg10
g11
(S'\x07\xe1\x02\x0c'
p1076
tp1077
Rp1078
ssI1219629
(dp1079
g2
g3
((lp1080
g37
ag992
ag993
ag72
atp1081
Rp1082
sg10
g11
(S'\x07\xe1\x02\x0c'
p1083
tp1084
Rp1085
ssI1219630
(dp1086
g2
g3
((lp1087
g71
ag161
aS'Personal Use'
p1088
atp1089
Rp1090
sg10
g11
(S'\x07\xe1\x02\x0c'
p1091
tp1092
Rp1093
ssI1219631
(dp1094
g279
g3
((lp1095
S'Paraguay'
p1096
aS'Services'
p1097
ag864
ag475
atp1098
Rp1099
sg286
g11
(S'\x07\xe1\x02\r'
p1100
tp1101
Rp1102
ssI1219634
(dp1103
g374
g3
((lp1104
S'Woman Owned Biz'
p1105
aS'Housing'
p1106
aS'Vietnam'
p1107
aS'Water and Sanitation'
p1108
ag379
atp1109
Rp1110
sg383
g11
(S'\x07\xe1\x02\x0c'
p1111
tp1112
Rp1113
ssI1219635
(dp1114
g2
g3
((lp1115
S'Paraguay'
p1116
ag456
ag80
ag457
atp1117
Rp1118
sg10
g11
(S'\x07\xe1\x02\x0c'
p1119
tp1120
Rp1121
ssI1219636
(dp1122
g2
g3
((lp1123
g37
ag189
ag71
atp1124
Rp1125
sg10
g11
(S'\x07\xe1\x02\x0c'
p1126
tp1127
Rp1128
ssI1219637
(dp1129
g2
g3
((lp1130
g1116
ag456
ag80
ag457
atp1131
Rp1132
sg10
g11
(S'\x07\xe1\x02\x0c'
p1133
tp1134
Rp1135
ssI1219638
(dp1136
g2
g3
((lp1137
g1116
ag456
ag80
ag457
atp1138
Rp1139
sg10
g11
(S'\x07\xe1\x02\x0c'
p1140
tp1141
Rp1142
ssI1219640
(dp1143
g2
g3
((lp1144
g189
ag29
ag71
atp1145
Rp1146
sg10
g11
(S'\x07\xe1\x02\x0c'
p1147
tp1148
Rp1149
ssI1219643
(dp1150
g2
g3
((lp1151
g1116
ag456
ag80
ag457
atp1152
Rp1153
sg10
g11
(S'\x07\xe1\x02\x0c'
p1154
tp1155
Rp1156
ssI1219644
(dp1157
g2
g3
((lp1158
g37
ag189
ag71
atp1159
Rp1160
sg10
g11
(S'\x07\xe1\x02\x0c'
p1161
tp1162
Rp1163
ssI1219645
(dp1164
g2
g3
((lp1165
g1116
ag456
ag80
ag457
atp1166
Rp1167
sg10
g11
(S'\x07\xe1\x02\x0c'
p1168
tp1169
Rp1170
ssI1219646
(dp1171
g257
g3
((lp1172
S'Agriculture'
p1173
ag260
ag262
aS'Eco-friendly'
p1174
atp1175
Rp1176
sg267
g11
(S'\x07\xe1\x02\x0c'
p1177
tp1178
Rp1179
ssI1219647
(dp1180
g2
g3
((lp1181
g1116
ag456
ag80
ag457
atp1182
Rp1183
sg10
g11
(S'\x07\xe1\x02\x0c'
p1184
tp1185
Rp1186
ssI1219648
(dp1187
g2
g3
((lp1188
g19
ag71
ag161
atp1189
Rp1190
sg10
g11
(S'\x07\xe1\x02\x0c'
p1191
tp1192
Rp1193
ssI1219650
(dp1194
g2
g3
((lp1195
g37
ag71
ag161
atp1196
Rp1197
sg10
g11
(S'\x07\xe1\x02\x0c'
p1198
tp1199
Rp1200
ssI1219651
(dp1201
g2
g3
((lp1202
g808
ag19
ag71
atp1203
Rp1204
sg10
g11
(S'\x07\xe1\x02\x0e'
p1205
tp1206
Rp1207
ssI1219652
(dp1208
g374
g3
((lp1209
S'Woman Owned Biz'
p1210
ag497
ag379
aS'Cambodia'
p1211
atp1212
Rp1213
sg383
g11
(S'\x07\xe1\x02\x0c'
p1214
tp1215
Rp1216
ssI1219654
(dp1217
g2
g3
((lp1218
g19
ag71
ag161
atp1219
Rp1220
sg10
g11
(S'\x07\xe1\x02\x0c'
p1221
tp1222
Rp1223
ssI1219655
(dp1224
g2
g3
((lp1225
S'Green'
p1226
ag71
ag161
ag1088
atp1227
Rp1228
sg10
g11
(S'\x07\xe1\x02\x0c'
p1229
tp1230
Rp1231
ssI1219656
(dp1232
g2
g3
((lp1233
g71
ag161
ag1088
atp1234
Rp1235
sg10
g11
(S'\x07\xe1\x02\x0c'
p1236
tp1237
Rp1238
ssI1219658
(dp1239
S'elements'
p1240
g3
((lp1241
S'Cambodia'
p1242
aS'Personal Use'
p1243
aS'Elderly'
p1244
aS'Asia'
p1245
aS'Woman Owned Biz'
p1246
aS'Repeat Borrower'
p1247
atp1248
Rp1249
sS'expired_at'
p1250
g11
(S'\x07\xe1\x02\x0c'
p1251
tp1252
Rp1253
ssI1219660
(dp1254
g2
g3
((lp1255
g808
ag19
ag71
atp1256
Rp1257
sg10
g11
(S'\x07\xe1\x02\x0e'
p1258
tp1259
Rp1260
ssI1213282
(dp1261
g2
g3
((lp1262
g234
ag6
ag7
atp1263
Rp1264
sg10
g11
(S'\x07\xe1\x02\x0c'
p1265
tp1266
Rp1267
ssI1219662
(dp1268
g2
g3
((lp1269
S'Vietnam'
p1270
ag457
ag71
atp1271
Rp1272
sg10
g11
(S'\x07\xe1\x02\x0c'
p1273
tp1274
Rp1275
ssI1219663
(dp1276
g2
g3
((lp1277
g1270
ag19
ag162
ag71
atp1278
Rp1279
sg10
g11
(S'\x07\xe1\x02\x0c'
p1280
tp1281
Rp1282
ssI1219664
(dp1283
g2
g3
((lp1284
g808
ag19
ag71
atp1285
Rp1286
sg10
g11
(S'\x07\xe1\x02\x0e'
p1287
tp1288
Rp1289
ssI1219665
(dp1290
g2
g3
((lp1291
g1270
ag19
ag162
ag71
atp1292
Rp1293
sg10
g11
(S'\x07\xe1\x02\x0c'
p1294
tp1295
Rp1296
ssI1219666
(dp1297
g2
g3
((lp1298
g1270
ag19
ag162
ag71
atp1299
Rp1300
sg10
g11
(S'\x07\xe1\x02\x0c'
p1301
tp1302
Rp1303
ssI1219668
(dp1304
g2
g3
((lp1305
g1270
ag19
ag162
ag71
atp1306
Rp1307
sg10
g11
(S'\x07\xe1\x02\x0c'
p1308
tp1309
Rp1310
ssI1219669
(dp1311
g2
g3
((lp1312
g808
ag19
ag71
atp1313
Rp1314
sg10
g11
(S'\x07\xe1\x02\x0e'
p1315
tp1316
Rp1317
ssI1219670
(dp1318
g2
g3
((lp1319
g160
ag1270
ag162
ag71
atp1320
Rp1321
sg10
g11
(S'\x07\xe1\x02\x0c'
p1322
tp1323
Rp1324
ssI1219671
(dp1325
g2
g3
((lp1326
S'Myanmar (Burma)'
p1327
ag54
aS'Conflict Zones'
p1328
ag72
ag19
ag144
atp1329
Rp1330
sg10
g11
(S'\x07\xe1\x02\x0c'
p1331
tp1332
Rp1333
ssI1219672
(dp1334
g2
g3
((lp1335
g808
ag19
ag71
atp1336
Rp1337
sg10
g11
(S'\x07\xe1\x02\x0e'
p1338
tp1339
Rp1340
ssI1219674
(dp1341
g2
g3
((lp1342
g1270
ag19
ag162
ag71
atp1343
Rp1344
sg10
g11
(S'\x07\xe1\x02\x0c'
p1345
tp1346
Rp1347
ssI1219675
(dp1348
g2
g3
((lp1349
g160
ag1270
ag162
ag71
atp1350
Rp1351
sg10
g11
(S'\x07\xe1\x02\x0c'
p1352
tp1353
Rp1354
ssI1219677
(dp1355
g2
g3
((lp1356
g1270
ag19
ag162
ag71
atp1357
Rp1358
sg10
g11
(S'\x07\xe1\x02\x0c'
p1359
tp1360
Rp1361
ssI1219679
(dp1362
g2
g3
((lp1363
g143
ag205
ag71
atp1364
Rp1365
sg10
g11
(S'\x07\xe1\x02\r'
p1366
tp1367
Rp1368
ssI1219680
(dp1369
g2
g3
((lp1370
g1270
ag457
ag71
atp1371
Rp1372
sg10
g11
(S'\x07\xe1\x02\r'
p1373
tp1374
Rp1375
ssI1219681
(dp1376
g2
g3
((lp1377
g243
ag71
ag161
atp1378
Rp1379
sg10
g11
(S'\x07\xe1\x02\r'
p1380
tp1381
Rp1382
ssI1219682
(dp1383
g374
g3
((lp1384
S'Woman Owned Biz'
p1385
ag497
ag379
ag1211
ag378
atp1386
Rp1387
sg383
g11
(S'\x07\xe1\x02\r'
p1388
tp1389
Rp1390
ssI1219683
(dp1391
g2
g3
((lp1392
g808
ag19
ag71
atp1393
Rp1394
sg10
g11
(S'\x07\xe1\x02\x0e'
p1395
tp1396
Rp1397
ssI1219684
(dp1398
g2
g3
((lp1399
g71
ag161
ag1088
atp1400
Rp1401
sg10
g11
(S'\x07\xe1\x02\x0c'
p1402
tp1403
Rp1404
ssI1219685
(dp1405
g2
g3
((lp1406
g808
ag19
ag71
atp1407
Rp1408
sg10
g11
(S'\x07\xe1\x02\x0e'
p1409
tp1410
Rp1411
ssI1219687
(dp1412
g2
g3
((lp1413
g19
ag205
ag71
atp1414
Rp1415
sg10
g11
(S'\x07\xe1\x02\x0c'
p1416
tp1417
Rp1418
ssI1219688
(dp1419
g2
g3
((lp1420
g37
ag205
ag71
atp1421
Rp1422
sg10
g11
(S'\x07\xe1\x02\x0e'
p1423
tp1424
Rp1425
ssI1219690
(dp1426
g2
g3
((lp1427
g160
ag71
ag161
atp1428
Rp1429
sg10
g11
(S'\x07\xe1\x02\x0c'
p1430
tp1431
Rp1432
ssI1219694
(dp1433
g2
g3
((lp1434
g808
ag19
ag71
atp1435
Rp1436
sg10
g11
(S'\x07\xe1\x02\x0e'
p1437
tp1438
Rp1439
ssI1219696
(dp1440
g2
g3
((lp1441
g808
ag19
ag71
atp1442
Rp1443
sg10
g11
(S'\x07\xe1\x02\x0e'
p1444
tp1445
Rp1446
ssI1219698
(dp1447
g2
g3
((lp1448
g104
ag205
ag71
atp1449
Rp1450
sg10
g11
(S'\x07\xe1\x02\x0c'
p1451
tp1452
Rp1453
ssI1219699
(dp1454
g2
g3
((lp1455
g808
ag19
ag71
atp1456
Rp1457
sg10
g11
(S'\x07\xe1\x02\x0e'
p1458
tp1459
Rp1460
ssI1217658
(dp1461
g2
g3
((lp1462
g37
ag242
ag18
atp1463
Rp1464
sg10
g11
(S'\x07\xe1\x02\r'
p1465
tp1466
Rp1467
ssI1206122
(dp1468
g354
g3
((lp1469
S'Repeat Borrower'
p1470
ag405
ag406
aS'Higher Education'
p1471
ag407
atp1472
Rp1473
sg362
g11
(S'\x07\xe1\x02\r'
p1474
tp1475
Rp1476
ssI1217662
(dp1477
g2
g3
((lp1478
g37
aS'Disaster recovery'
p1479
aS'Costa Rica'
p1480
ag7
atp1481
Rp1482
sg10
g11
(S'\x07\xe1\x02\x0c'
p1483
tp1484
Rp1485
ssI1219713
(dp1486
g2
g3
((lp1487
g189
ag29
ag71
atp1488
Rp1489
sg10
g11
(S'\x07\xe1\x02\x0c'
p1490
tp1491
Rp1492
ssI1217666
(dp1493
g2
g3
((lp1494
g874
ag5
ag7
ag162
atp1495
Rp1496
sg10
g11
(S'\x07\xe1\x02\r'
p1497
tp1498
Rp1499
ssI1219717
(dp1500
g2
g3
((lp1501
g189
ag160
ag71
atp1502
Rp1503
sg10
g11
(S'\x07\xe1\x02\x0c'
p1504
tp1505
Rp1506
ssI1217674
(dp1507
g2
g3
((lp1508
g104
ag242
ag18
atp1509
Rp1510
sg10
g11
(S'\x07\xe1\x02\x0c'
p1511
tp1512
Rp1513
ssI1219725
(dp1514
g2
g3
((lp1515
g37
ag205
ag71
atp1516
Rp1517
sg10
g11
(S'\x07\xe1\x02\x0c'
p1518
tp1519
Rp1520
ssI1219726
(dp1521
g2
g3
((lp1522
g54
ag29
ag1073
ag72
atp1523
Rp1524
sg10
g11
(S'\x07\xe1\x02\x0c'
p1525
tp1526
Rp1527
ssI1219728
(dp1528
g2
g3
((lp1529
g234
ag70
ag71
ag144
atp1530
Rp1531
sg10
g11
(S'\x07\xe1\x02\x0c'
p1532
tp1533
Rp1534
ssI1219729
(dp1535
g2
g3
((lp1536
g234
ag70
ag71
ag144
atp1537
Rp1538
sg10
g11
(S'\x07\xe1\x02\x0c'
p1539
tp1540
Rp1541
ssI1219732
(dp1542
g2
g3
((lp1543
g234
ag70
ag71
ag144
atp1544
Rp1545
sg10
g11
(S'\x07\xe1\x02\x0c'
p1546
tp1547
Rp1548
ssI1219733
(dp1549
g2
g3
((lp1550
g234
ag70
ag71
ag144
atp1551
Rp1552
sg10
g11
(S'\x07\xe1\x02\x0c'
p1553
tp1554
Rp1555
ssI1219734
(dp1556
g169
g3
((lp1557
S'Food'
p1558
aS'Underfunded Areas'
p1559
aS'India'
p1560
ag173
ag579
atp1561
Rp1562
sg176
g11
(S'\x07\xe1\x02\x0c'
p1563
tp1564
Rp1565
ssI1219739
(dp1566
g2
g3
((lp1567
g104
ag18
ag152
ag144
atp1568
Rp1569
sg10
g11
(S'\x07\xe1\x02\x0c'
p1570
tp1571
Rp1572
ssI1219740
(dp1573
g2
g3
((lp1574
g143
ag205
ag71
atp1575
Rp1576
sg10
g11
(S'\x07\xe1\x02\x0c'
p1577
tp1578
Rp1579
ssI1219741
(dp1580
g2
g3
((lp1581
g37
ag18
ag152
ag144
atp1582
Rp1583
sg10
g11
(S'\x07\xe1\x02\x0c'
p1584
tp1585
Rp1586
ssI1219742
(dp1587
g120
g3
((lp1588
S'Food'
p1589
ag331
aS'India'
p1590
ag124
ag1051
atp1591
Rp1592
sg128
g11
(S'\x07\xe1\x02\x0c'
p1593
tp1594
Rp1595
ssI1219744
(dp1596
g2
g3
((lp1597
g19
ag18
ag152
ag144
atp1598
Rp1599
sg10
g11
(S'\x07\xe1\x02\x0c'
p1600
tp1601
Rp1602
ssI1219745
(dp1603
g2
g3
((lp1604
g234
ag70
ag71
ag144
atp1605
Rp1606
sg10
g11
(S'\x07\xe1\x02\x0c'
p1607
tp1608
Rp1609
ssI1219746
(dp1610
g2
g3
((lp1611
g19
ag18
ag152
ag144
atp1612
Rp1613
sg10
g11
(S'\x07\xe1\x02\x0c'
p1614
tp1615
Rp1616
ssI1219747
(dp1617
g2
g3
((lp1618
g234
ag70
ag71
ag144
atp1619
Rp1620
sg10
g11
(S'\x07\xe1\x02\x0c'
p1621
tp1622
Rp1623
ssI1219748
(dp1624
g2
g3
((lp1625
g70
ag5
ag71
ag144
atp1626
Rp1627
sg10
g11
(S'\x07\xe1\x02\r'
p1628
tp1629
Rp1630
ssI1219750
(dp1631
g2
g3
((lp1632
g234
ag70
ag71
ag144
atp1633
Rp1634
sg10
g11
(S'\x07\xe1\x02\x0c'
p1635
tp1636
Rp1637
ssI1219751
(dp1638
g2
g3
((lp1639
g234
ag70
ag71
ag144
atp1640
Rp1641
sg10
g11
(S'\x07\xe1\x02\x0c'
p1642
tp1643
Rp1644
ssI1219753
(dp1645
g2
g3
((lp1646
g37
ag70
ag71
ag144
atp1647
Rp1648
sg10
g11
(S'\x07\xe1\x02\x0c'
p1649
tp1650
Rp1651
ssI1219755
(dp1652
g2
g3
((lp1653
g70
ag19
ag71
ag144
atp1654
Rp1655
sg10
g11
(S'\x07\xe1\x02\x0c'
p1656
tp1657
Rp1658
ssI1219756
(dp1659
g2
g3
((lp1660
g234
ag70
ag71
ag144
atp1661
Rp1662
sg10
g11
(S'\x07\xe1\x02\x0c'
p1663
tp1664
Rp1665
ssI1219757
(dp1666
g2
g3
((lp1667
g234
ag70
ag71
ag144
atp1668
Rp1669
sg10
g11
(S'\x07\xe1\x02\x0c'
p1670
tp1671
Rp1672
ssI1219758
(dp1673
g2
g3
((lp1674
g339
aS'Arts'
p1675
ag204
ag340
atp1676
Rp1677
sg10
g11
(S'\x07\xe1\x02\x0c'
p1678
tp1679
Rp1680
ssI1219759
(dp1681
g2
g3
((lp1682
g234
ag70
ag71
ag144
atp1683
Rp1684
sg10
g11
(S'\x07\xe1\x02\x0c'
p1685
tp1686
Rp1687
ssI1219760
(dp1688
g2
g3
((lp1689
g234
ag70
ag71
ag144
atp1690
Rp1691
sg10
g11
(S'\x07\xe1\x02\x0c'
p1692
tp1693
Rp1694
ssI1219761
(dp1695
g2
g3
((lp1696
g70
ag1675
ag71
ag144
atp1697
Rp1698
sg10
g11
(S'\x07\xe1\x02\x0c'
p1699
tp1700
Rp1701
ssI1211251
(dp1702
g2
g3
((lp1703
g306
ag18
ag104
atp1704
Rp1705
sg10
g11
(S'\x07\xe1\x02\x0c'
p1706
tp1707
Rp1708
ssI1219764
(dp1709
g2
g3
((lp1710
g19
ag71
ag161
atp1711
Rp1712
sg10
g11
(S'\x07\xe1\x02\x0c'
p1713
tp1714
Rp1715
ssI1219765
(dp1716
g2
g3
((lp1717
g29
ag18
ag152
ag144
atp1718
Rp1719
sg10
g11
(S'\x07\xe1\x02\x0c'
p1720
tp1721
Rp1722
ssI1217719
(dp1723
g2
g3
((lp1724
g874
ag37
ag7
ag162
atp1725
Rp1726
sg10
g11
(S'\x07\xe1\x02\x0c'
p1727
tp1728
Rp1729
ssI1219776
(dp1730
g2
g3
((lp1731
g37
ag18
ag152
ag144
atp1732
Rp1733
sg10
g11
(S'\x07\xe1\x02\x0c'
p1734
tp1735
Rp1736
ssI1219780
(dp1737
g2
g3
((lp1738
g19
ag18
ag152
ag144
atp1739
Rp1740
sg10
g11
(S'\x07\xe1\x02\x0c'
p1741
tp1742
Rp1743
ssI1219790
(dp1744
g2
g3
((lp1745
g339
ag37
ag204
ag340
atp1746
Rp1747
sg10
g11
(S'\x07\xe1\x02\x0c'
p1748
tp1749
Rp1750
ssI1219793
(dp1751
g2
g3
((lp1752
g19
ag205
ag71
atp1753
Rp1754
sg10
g11
(S'\x07\xe1\x02\x0c'
p1755
tp1756
Rp1757
ssI1219796
(dp1758
g2
g3
((lp1759
g37
ag189
ag71
atp1760
Rp1761
sg10
g11
(S'\x07\xe1\x02\x0c'
p1762
tp1763
Rp1764
ssI1219798
(dp1765
g279
g3
((lp1766
g281
aS'Underfunded Areas'
p1767
aS'India'
p1768
ag283
ag424
atp1769
Rp1770
sg286
g11
(S'\x07\xe1\x02\x0c'
p1771
tp1772
Rp1773
ssI1219802
(dp1774
g1240
g3
((lp1775
S'Unknown'
p1776
aS'Elderly'
p1777
aS'Timor-Leste'
p1778
aS'Woman Owned Biz'
p1779
aS'Repeat Borrower'
p1780
aS'Education'
p1781
atp1782
Rp1783
sg1250
g11
(S'\x07\xe1\x02\x0c'
p1784
tp1785
Rp1786
ssI1219806
(dp1787
g2
g3
((lp1788
g54
ag29
ag1073
ag72
atp1789
Rp1790
sg10
g11
(S'\x07\xe1\x02\x0c'
p1791
tp1792
Rp1793
ssI1219807
(dp1794
g120
g3
((lp1795
g1590
ag331
ag135
ag124
ag1051
atp1796
Rp1797
sg128
g11
(S'\x07\xe1\x02\x0c'
p1798
tp1799
Rp1800
ssI1219810
(dp1801
g2
g3
((lp1802
g234
ag70
ag71
ag72
atp1803
Rp1804
sg10
g11
(S'\x07\xe1\x02\x0c'
p1805
tp1806
Rp1807
ssI1219813
(dp1808
g2
g3
((lp1809
g54
ag29
ag1073
ag72
atp1810
Rp1811
sg10
g11
(S'\x07\xe1\x02\x0c'
p1812
tp1813
Rp1814
ssI1219816
(dp1815
g120
g3
((lp1816
g328
ag329
ag330
aS'Personal Use'
p1817
atp1818
Rp1819
sg128
g11
(S'\x07\xe1\x02\x0c'
p1820
tp1821
Rp1822
ssI1219820
(dp1823
g2
g3
((lp1824
g234
ag70
ag71
ag72
atp1825
Rp1826
sg10
g11
(S'\x07\xe1\x02\x0c'
p1827
tp1828
Rp1829
ssI1219821
(dp1830
g2
g3
((lp1831
g54
ag29
ag1073
ag72
atp1832
Rp1833
sg10
g11
(S'\x07\xe1\x02\x0c'
p1834
tp1835
Rp1836
ssI1219822
(dp1837
g374
g3
((lp1838
S'India'
p1839
ag379
ag684
aS'Woman Owned Biz'
p1840
ag497
ag378
atp1841
Rp1842
sg383
g11
(S'\x07\xe1\x02\x0c'
p1843
tp1844
Rp1845
ssI1219823
(dp1846
g2
g3
((lp1847
g339
ag37
ag340
atp1848
Rp1849
sg10
g11
(S'\x07\xe1\x02\r'
p1850
tp1851
Rp1852
ssI1219825
(dp1853
g2
g3
((lp1854
g29
ag18
ag152
atp1855
Rp1856
sg10
g11
(S'\x07\xe1\x02\r'
p1857
tp1858
Rp1859
ssI1219826
(dp1860
g1240
g3
((lp1861
S'India'
p1862
ag1245
aS'Elderly'
p1863
aS'Underfunded Areas'
p1864
aS'Woman Owned Biz'
p1865
aS'Repeat Borrower'
p1866
aS'Agriculture'
p1867
aS'Rural Exclusion'
p1868
atp1869
Rp1870
sg1250
g11
(S'\x07\xe1\x02\x0c'
p1871
tp1872
Rp1873
ssI1219827
(dp1874
g279
g3
((lp1875
g281
ag1767
ag1768
ag283
ag424
atp1876
Rp1877
sg286
g11
(S'\x07\xe1\x02\x0c'
p1878
tp1879
Rp1880
ssI1219828
(dp1881
g2
g3
((lp1882
g29
ag18
ag152
ag144
atp1883
Rp1884
sg10
g11
(S'\x07\xe1\x02\x0c'
p1885
tp1886
Rp1887
ssI1219834
(dp1888
g2
g3
((lp1889
g37
ag17
ag18
atp1890
Rp1891
sg10
g11
(S'\x07\xe1\x02\x0c'
p1892
tp1893
Rp1894
ssI1219837
(dp1895
g257
g3
((lp1896
S'Unknown'
p1897
aS'Timor-Leste'
p1898
aS'Eco-friendly'
p1899
ag1173
aS'Underfunded Areas'
p1900
atp1901
Rp1902
sg267
g11
(S'\x07\xe1\x02\r'
p1903
tp1904
Rp1905
ssI1219838
(dp1906
g120
g3
((lp1907
g328
ag329
ag330
ag1817
atp1908
Rp1909
sg128
g11
(S'\x07\xe1\x02\r'
p1910
tp1911
Rp1912
ssI1219839
(dp1913
g374
g3
((lp1914
g1030
ag543
ag544
aS'Woman Owned Biz'
p1915
atp1916
Rp1917
sg383
g11
(S'\x07\xe1\x02\r'
p1918
tp1919
Rp1920
ssI1219840
(dp1921
g2
g3
((lp1922
g339
ag19
ag340
ag72
atp1923
Rp1924
sg10
g11
(S'\x07\xe1\x02\r'
p1925
tp1926
Rp1927
ssI1219841
(dp1928
g374
g3
((lp1929
S'Woman Owned Biz'
p1930
aS'Philippines'
p1931
ag635
ag379
atp1932
Rp1933
sg383
g11
(S'\x07\xe1\x02\r'
p1934
tp1935
Rp1936
ssI1219842
(dp1937
g120
g3
((lp1938
g1589
ag329
aS'Uganda'
p1939
atp1940
Rp1941
sg128
g11
(S'\x07\xe1\x02\r'
p1942
tp1943
Rp1944
ssI1219843
(dp1945
g374
g3
((lp1946
g1839
ag379
ag684
aS'Woman Owned Biz'
p1947
ag497
ag378
atp1948
Rp1949
sg383
g11
(S'\x07\xe1\x02\x0e'
p1950
tp1951
Rp1952
ssI1219844
(dp1953
g2
g3
((lp1954
g234
ag70
ag71
ag72
atp1955
Rp1956
sg10
g11
(S'\x07\xe1\x02\x0e'
p1957
tp1958
Rp1959
ssI1219845
(dp1960
g120
g3
((lp1961
g328
ag329
ag330
ag1817
atp1962
Rp1963
sg128
g11
(S'\x07\xe1\x02\r'
p1964
tp1965
Rp1966
ssI1219846
(dp1967
g2
g3
((lp1968
g339
ag19
ag340
atp1969
Rp1970
sg10
g11
(S'\x07\xe1\x02\x0c'
p1971
tp1972
Rp1973
ssI1219849
(dp1974
g2
g3
((lp1975
g160
ag144
ag71
ag161
ag162
atp1976
Rp1977
sg10
g11
(S'\x07\xe1\x02\x0c'
p1978
tp1979
Rp1980
ssI1219853
(dp1981
g1240
g3
((lp1982
S'Transportation'
p1983
aS'Africa'
p1984
aS'Elderly'
p1985
aS'Woman Owned Biz'
p1986
aS'Kenya'
p1987
aS'Repeat Borrower'
p1988
atp1989
Rp1990
sg1250
g11
(S'\x07\xe1\x02\x0c'
p1991
tp1992
Rp1993
ssI1219855
(dp1994
g2
g3
((lp1995
g37
ag189
ag71
atp1996
Rp1997
sg10
g11
(S'\x07\xe1\x02\x0c'
p1998
tp1999
Rp2000
ssI1219858
(dp2001
g2
g3
((lp2002
g144
ag19
ag71
ag161
ag162
atp2003
Rp2004
sg10
g11
(S'\x07\xe1\x02\r'
p2005
tp2006
Rp2007
ssI1219862
(dp2008
g2
g3
((lp2009
g144
ag19
ag71
ag161
ag162
atp2010
Rp2011
sg10
g11
(S'\x07\xe1\x02\r'
p2012
tp2013
Rp2014
ssI1219865
(dp2015
g2
g3
((lp2016
g144
ag19
ag71
ag161
ag162
atp2017
Rp2018
sg10
g11
(S'\x07\xe1\x02\r'
p2019
tp2020
Rp2021
ssI1219867
(dp2022
g257
g3
((lp2023
g259
ag260
aS'Eco-friendly'
p2024
ag262
ag1173
ag264
atp2025
Rp2026
sg267
g11
(S'\x07\xe1\x02\r'
p2027
tp2028
Rp2029
ssI1219870
(dp2030
g2
g3
((lp2031
g37
ag189
ag71
atp2032
Rp2033
sg10
g11
(S'\x07\xe1\x02\x0c'
p2034
tp2035
Rp2036
ssI1219871
(dp2037
g2
g3
((lp2038
g234
ag18
ag152
atp2039
Rp2040
sg10
g11
(S'\x07\xe1\x02\r'
p2041
tp2042
Rp2043
ssI1219872
(dp2044
g2
g3
((lp2045
g37
ag144
ag71
ag161
ag162
atp2046
Rp2047
sg10
g11
(S'\x07\xe1\x02\r'
p2048
tp2049
Rp2050
ssI1219874
(dp2051
g2
g3
((lp2052
g162
ag144
ag71
ag161
ag1088
atp2053
Rp2054
sg10
g11
(S'\x07\xe1\x02\r'
p2055
tp2056
Rp2057
ssI1219877
(dp2058
g1240
g3
((lp2059
S'Vulnerable Groups'
p2060
ag1242
aS'Elderly'
p2061
ag1245
aS'Woman Owned Biz'
p2062
aS'Repeat Borrower'
p2063
ag1867
ag1868
atp2064
Rp2065
sg1250
g11
(S'\x07\xe1\x02\r'
p2066
tp2067
Rp2068
ssI1219878
(dp2069
g374
g3
((lp2070
g543
ag635
ag544
aS'Woman Owned Biz'
p2071
atp2072
Rp2073
sg383
g11
(S'\x07\xe1\x02\r'
p2074
tp2075
Rp2076
ssI1219881
(dp2077
g2
g3
((lp2078
g37
ag204
ag18
aS'Malawi'
p2079
atp2080
Rp2081
sg10
g11
(S'\x07\xe1\x02\r'
p2082
tp2083
Rp2084
ssI1219883
(dp2085
g374
g3
((lp2086
g1030
aS'Woman Owned Biz'
p2087
aS'Start-Up'
p2088
ag544
aS'Malawi'
p2089
atp2090
Rp2091
sg383
g11
(S'\x07\xe1\x02\r'
p2092
tp2093
Rp2094
ssI1219886
(dp2095
g2
g3
((lp2096
g189
ag243
ag71
atp2097
Rp2098
sg10
g11
(S'\x07\xe1\x02\r'
p2099
tp2100
Rp2101
ssI1219890
(dp2102
g2
g3
((lp2103
g189
ag160
ag71
atp2104
Rp2105
sg10
g11
(S'\x07\xe1\x02\r'
p2106
tp2107
Rp2108
ssI1219891
(dp2109
g1240
g3
((lp2110
S'Philippines'
p2111
ag1245
aS'Elderly'
p2112
aS'Woman Owned Biz'
p2113
aS'Repeat Borrower'
p2114
ag1867
atp2115
Rp2116
sg1250
g11
(S'\x07\xe1\x02\r'
p2117
tp2118
Rp2119
ssI1219892
(dp2120
g2
g3
((lp2121
g37
ag189
ag71
atp2122
Rp2123
sg10
g11
(S'\x07\xe1\x02\r'
p2124
tp2125
Rp2126
ssI1220405
(dp2127
g279
g3
((lp2128
S'Philippines'
p2129
aS'Retail'
p2130
ag283
atp2131
Rp2132
sg286
g11
(S'\x07\xe1\x02\r'
p2133
tp2134
Rp2135
ssI1219894
(dp2136
g2
g3
((lp2137
g37
ag189
ag71
atp2138
Rp2139
sg10
g11
(S'\x07\xe1\x02\r'
p2140
tp2141
Rp2142
ssI1219895
(dp2143
g2
g3
((lp2144
g189
ag5
ag71
atp2145
Rp2146
sg10
g11
(S'\x07\xe1\x02\r'
p2147
tp2148
Rp2149
ssI1219898
(dp2150
g2
g3
((lp2151
g189
ag29
ag71
atp2152
Rp2153
sg10
g11
(S'\x07\xe1\x02\r'
p2154
tp2155
Rp2156
ssI1205565
(dp2157
g2
g3
((lp2158
g234
ag70
ag71
ag72
atp2159
Rp2160
sg10
g11
(S'\x07\xe1\x02\r'
p2161
tp2162
Rp2163
ssI1219904
(dp2164
g120
g3
((lp2165
g1590
ag331
ag135
ag124
ag1051
atp2166
Rp2167
sg128
g11
(S'\x07\xe1\x02\r'
p2168
tp2169
Rp2170
ssI1219908
(dp2171
g279
g3
((lp2172
g283
ag281
ag475
aS'Cambodia'
p2173
ag424
atp2174
Rp2175
sg286
g11
(S'\x07\xe1\x02\r'
p2176
tp2177
Rp2178
ssI1219909
(dp2179
g2
g3
((lp2180
g189
ag29
ag71
atp2181
Rp2182
sg10
g11
(S'\x07\xe1\x02\r'
p2183
tp2184
Rp2185
ssI1219910
(dp2186
g2
g3
((lp2187
g189
ag160
ag71
atp2188
Rp2189
sg10
g11
(S'\x07\xe1\x02\r'
p2190
tp2191
Rp2192
ssI1219912
(dp2193
g2
g3
((lp2194
g189
ag29
ag71
atp2195
Rp2196
sg10
g11
(S'\x07\xe1\x02\r'
p2197
tp2198
Rp2199
ssI1219913
(dp2200
g279
g3
((lp2201
g2129
aS'Manufacturing'
p2202
ag283
atp2203
Rp2204
sg286
g11
(S'\x07\xe1\x02\r'
p2205
tp2206
Rp2207
ssI1219916
(dp2208
g2
g3
((lp2209
g144
ag19
ag71
ag161
ag162
atp2210
Rp2211
sg10
g11
(S'\x07\xe1\x02\r'
p2212
tp2213
Rp2214
ssI1219921
(dp2215
g374
g3
((lp2216
g601
ag379
ag1211
aS'Woman Owned Biz'
p2217
ag497
ag378
atp2218
Rp2219
sg383
g11
(S'\x07\xe1\x02\r'
p2220
tp2221
Rp2222
ssI1219924
(dp2223
g354
g3
((lp2224
S'Vulnerable Groups'
p2225
ag356
ag407
aS'Cambodia'
p2226
aS'Repeat Borrower'
p2227
aS'Rural Exclusion'
p2228
atp2229
Rp2230
sg362
g11
(S'\x07\xe1\x02\r'
p2231
tp2232
Rp2233
ssI1219926
(dp2234
g2
g3
((lp2235
g189
ag29
ag71
atp2236
Rp2237
sg10
g11
(S'\x07\xe1\x02\r'
p2238
tp2239
Rp2240
ssI1219929
(dp2241
g374
g3
((lp2242
g1839
ag379
ag684
aS'Woman Owned Biz'
p2243
ag497
ag378
atp2244
Rp2245
sg383
g11
(S'\x07\xe1\x02\r'
p2246
tp2247
Rp2248
ssI1219930
(dp2249
g2
g3
((lp2250
g160
ag144
ag71
ag161
ag162
atp2251
Rp2252
sg10
g11
(S'\x07\xe1\x02\r'
p2253
tp2254
Rp2255
ssI1219932
(dp2256
g2
g3
((lp2257
g144
ag19
ag71
ag161
ag162
atp2258
Rp2259
sg10
g11
(S'\x07\xe1\x02\r'
p2260
tp2261
Rp2262
ssI1219936
(dp2263
g2
g3
((lp2264
g144
ag19
ag71
ag161
ag162
atp2265
Rp2266
sg10
g11
(S'\x07\xe1\x02\r'
p2267
tp2268
Rp2269
ssI1219938
(dp2270
g279
g3
((lp2271
g422
ag2130
ag423
atp2272
Rp2273
sg286
g11
(S'\x07\xe1\x02\r'
p2274
tp2275
Rp2276
ssI1219939
(dp2277
g2
g3
((lp2278
g104
ag72
aS'India'
p2279
ag71
ag144
atp2280
Rp2281
sg10
g11
(S'\x07\xe1\x02\r'
p2282
tp2283
Rp2284
ssI1219940
(dp2285
g2
g3
((lp2286
g144
ag19
ag71
ag161
ag162
atp2287
Rp2288
sg10
g11
(S'\x07\xe1\x02\r'
p2289
tp2290
Rp2291
ssI1219941
(dp2292
g2
g3
((lp2293
g144
ag19
ag71
ag161
ag162
atp2294
Rp2295
sg10
g11
(S'\x07\xe1\x02\r'
p2296
tp2297
Rp2298
ssI1219943
(dp2299
g2
g3
((lp2300
g144
ag19
ag71
ag161
ag162
atp2301
Rp2302
sg10
g11
(S'\x07\xe1\x02\r'
p2303
tp2304
Rp2305
ssI1219945
(dp2306
g2
g3
((lp2307
g144
ag19
ag71
ag161
ag162
atp2308
Rp2309
sg10
g11
(S'\x07\xe1\x02\r'
p2310
tp2311
Rp2312
ssI1219946
(dp2313
g2
g3
((lp2314
g37
aS'Refugees\\/Displaced'
p2315
ag465
ag162
ag71
atp2316
Rp2317
sg10
g11
(S'\x07\xe1\x02\r'
p2318
tp2319
Rp2320
ssI1203563
(dp2321
g2
g3
((lp2322
g507
ag457
ag18
ag144
atp2323
Rp2324
sg10
g11
(S'\x07\xe1\x02\x0c'
p2325
tp2326
Rp2327
ssI1219948
(dp2328
g2
g3
((lp2329
g144
ag19
ag71
ag161
ag162
atp2330
Rp2331
sg10
g11
(S'\x07\xe1\x02\r'
p2332
tp2333
Rp2334
ssI1219949
(dp2335
g279
g3
((lp2336
g283
ag281
ag475
ag2173
ag424
atp2337
Rp2338
sg286
g11
(S'\x07\xe1\x02\r'
p2339
tp2340
Rp2341
ssI1219951
(dp2342
g2
g3
((lp2343
g37
ag242
ag18
atp2344
Rp2345
sg10
g11
(S'\x07\xe1\x02\x0e'
p2346
tp2347
Rp2348
ssI1219954
(dp2349
g374
g3
((lp2350
g1030
aS'Woman Owned Biz'
p2351
ag1931
ag379
atp2352
Rp2353
sg383
g11
(S'\x07\xe1\x02\r'
p2354
tp2355
Rp2356
ssI1219955
(dp2357
g2
g3
((lp2358
g37
ag17
ag18
atp2359
Rp2360
sg10
g11
(S'\x07\xe1\x02\r'
p2361
tp2362
Rp2363
ssI1219960
(dp2364
g2
g3
((lp2365
g70
ag1675
ag71
ag72
atp2366
Rp2367
sg10
g11
(S'\x07\xe1\x02\r'
p2368
tp2369
Rp2370
ssI1219961
(dp2371
g2
g3
((lp2372
g70
ag104
ag71
ag72
atp2373
Rp2374
sg10
g11
(S'\x07\xe1\x02\r'
p2375
tp2376
Rp2377
ssI1219962
(dp2378
g374
g3
((lp2379
g650
ag376
ag684
ag379
aS'Woman Owned Biz'
p2380
atp2381
Rp2382
sg383
g11
(S'\x07\xe1\x02\r'
p2383
tp2384
Rp2385
ssI1219963
(dp2386
g2
g3
((lp2387
g70
aS'Manufacturing'
p2388
ag71
ag72
atp2389
Rp2390
sg10
g11
(S'\x07\xe1\x02\r'
p2391
tp2392
Rp2393
ssI1219964
(dp2394
g2
g3
((lp2395
g234
ag70
ag71
ag72
atp2396
Rp2397
sg10
g11
(S'\x07\xe1\x02\r'
p2398
tp2399
Rp2400
ssI1219965
(dp2401
g2
g3
((lp2402
g234
ag70
ag71
ag72
atp2403
Rp2404
sg10
g11
(S'\x07\xe1\x02\r'
p2405
tp2406
Rp2407
ssI1219966
(dp2408
g2
g3
((lp2409
g234
ag70
ag71
ag72
atp2410
Rp2411
sg10
g11
(S'\x07\xe1\x02\r'
p2412
tp2413
Rp2414
ssI1219967
(dp2415
g2
g3
((lp2416
g143
ag205
ag71
ag144
atp2417
Rp2418
sg10
g11
(S'\x07\xe1\x02\r'
p2419
tp2420
Rp2421
ssI1219969
(dp2422
g2
g3
((lp2423
g339
ag204
ag5
ag340
atp2424
Rp2425
sg10
g11
(S'\x07\xe1\x02\r'
p2426
tp2427
Rp2428
ssI1219970
(dp2429
g2
g3
((lp2430
g37
ag242
ag18
atp2431
Rp2432
sg10
g11
(S'\x07\xe1\x02\x0e'
p2433
tp2434
Rp2435
ssI1219973
(dp2436
g2
g3
((lp2437
g37
ag18
ag152
atp2438
Rp2439
sg10
g11
(S'\x07\xe1\x02\r'
p2440
tp2441
Rp2442
ssI1219977
(dp2443
g2
g3
((lp2444
g456
ag457
ag205
ag71
atp2445
Rp2446
sg10
g11
(S'\x07\xe1\x02\r'
p2447
tp2448
Rp2449
ssI1219978
(dp2450
g2
g3
((lp2451
g234
ag70
ag71
ag144
atp2452
Rp2453
sg10
g11
(S'\x07\xe1\x02\r'
p2454
tp2455
Rp2456
ssI1219981
(dp2457
g2
g3
((lp2458
g37
ag70
ag71
ag72
atp2459
Rp2460
sg10
g11
(S'\x07\xe1\x02\r'
p2461
tp2462
Rp2463
ssI1219983
(dp2464
g2
g3
((lp2465
g234
ag70
ag71
ag144
atp2466
Rp2467
sg10
g11
(S'\x07\xe1\x02\r'
p2468
tp2469
Rp2470
ssI1219984
(dp2471
g2
g3
((lp2472
g507
ag457
ag18
ag144
atp2473
Rp2474
sg10
g11
(S'\x07\xe1\x02\r'
p2475
tp2476
Rp2477
ssI1203601
(dp2478
g2
g3
((lp2479
g507
ag457
ag18
ag144
atp2480
Rp2481
sg10
g11
(S'\x07\xe1\x02\x0c'
p2482
tp2483
Rp2484
ssI1219986
(dp2485
g2
g3
((lp2486
g70
ag1675
ag71
ag72
atp2487
Rp2488
sg10
g11
(S'\x07\xe1\x02\r'
p2489
tp2490
Rp2491
ssI1219987
(dp2492
g2
g3
((lp2493
g339
ag19
ag340
atp2494
Rp2495
sg10
g11
(S'\x07\xe1\x02\r'
p2496
tp2497
Rp2498
ssI1219989
(dp2499
g2
g3
((lp2500
g70
ag29
ag71
ag144
atp2501
Rp2502
sg10
g11
(S'\x07\xe1\x02\r'
p2503
tp2504
Rp2505
ssI1219991
(dp2506
g2
g3
((lp2507
g70
ag5
ag71
ag72
atp2508
Rp2509
sg10
g11
(S'\x07\xe1\x02\r'
p2510
tp2511
Rp2512
ssI1219992
(dp2513
g374
g3
((lp2514
g376
ag377
ag378
ag379
aS'Woman Owned Biz'
p2515
atp2516
Rp2517
sg383
g11
(S'\x07\xe1\x02\r'
p2518
tp2519
Rp2520
ssI1219994
(dp2521
g2
g3
((lp2522
g339
ag19
ag1328
ag340
atp2523
Rp2524
sg10
g11
(S'\x07\xe1\x02\r'
p2525
tp2526
Rp2527
ssI1219995
(dp2528
g2
g3
((lp2529
g37
ag18
ag38
atp2530
Rp2531
sg10
g11
(S'\x07\xe1\x02\x0c'
p2532
tp2533
Rp2534
ssI1219996
(dp2535
g2
g3
((lp2536
g37
ag70
ag71
ag144
atp2537
Rp2538
sg10
g11
(S'\x07\xe1\x02\r'
p2539
tp2540
Rp2541
ssI1219997
(dp2542
g257
g3
((lp2543
S'Pakistan'
p2544
aS'Arts'
p2545
aS'Eco-friendly'
p2546
ag260
ag1900
atp2547
Rp2548
sg267
g11
(S'\x07\xe1\x02\r'
p2549
tp2550
Rp2551
ssI1219998
(dp2552
g2
g3
((lp2553
g339
ag19
ag340
ag144
atp2554
Rp2555
sg10
g11
(S'\x07\xe1\x02\r'
p2556
tp2557
Rp2558
ssI1219999
(dp2559
g2
g3
((lp2560
g17
ag29
ag18
atp2561
Rp2562
sg10
g11
(S'\x07\xe1\x02\r'
p2563
tp2564
Rp2565
ssI1220000
(dp2566
g2
g3
((lp2567
g143
ag205
ag71
atp2568
Rp2569
sg10
g11
(S'\x07\xe1\x02\r'
p2570
tp2571
Rp2572
ssI1220001
(dp2573
g2
g3
((lp2574
g17
ag18
ag5
atp2575
Rp2576
sg10
g11
(S'\x07\xe1\x02\r'
p2577
tp2578
Rp2579
ssI1220002
(dp2580
g2
g3
((lp2581
g339
ag19
ag340
atp2582
Rp2583
sg10
g11
(S'\x07\xe1\x02\r'
p2584
tp2585
Rp2586
ssI1220004
(dp2587
g2
g3
((lp2588
g70
ag104
ag71
ag72
atp2589
Rp2590
sg10
g11
(S'\x07\xe1\x02\r'
p2591
tp2592
Rp2593
ssI1220005
(dp2594
g2
g3
((lp2595
g70
ag104
ag71
ag72
atp2596
Rp2597
sg10
g11
(S'\x07\xe1\x02\r'
p2598
tp2599
Rp2600
ssI1220006
(dp2601
g2
g3
((lp2602
g234
ag70
ag71
ag72
atp2603
Rp2604
sg10
g11
(S'\x07\xe1\x02\r'
p2605
tp2606
Rp2607
ssI1220008
(dp2608
g2
g3
((lp2609
g339
ag19
ag340
ag144
atp2610
Rp2611
sg10
g11
(S'\x07\xe1\x02\r'
p2612
tp2613
Rp2614
ssI1220009
(dp2615
g2
g3
((lp2616
g234
ag70
ag71
ag72
atp2617
Rp2618
sg10
g11
(S'\x07\xe1\x02\r'
p2619
tp2620
Rp2621
ssI1220010
(dp2622
g2
g3
((lp2623
g70
ag2388
ag71
ag72
atp2624
Rp2625
sg10
g11
(S'\x07\xe1\x02\r'
p2626
tp2627
Rp2628
ssI1220011
(dp2629
g2
g3
((lp2630
g70
ag29
ag71
ag72
atp2631
Rp2632
sg10
g11
(S'\x07\xe1\x02\r'
p2633
tp2634
Rp2635
ssI1220012
(dp2636
g2
g3
((lp2637
g339
ag19
ag1328
ag340
atp2638
Rp2639
sg10
g11
(S'\x07\xe1\x02\r'
p2640
tp2641
Rp2642
ssI1220013
(dp2643
g2
g3
((lp2644
g234
ag70
ag71
ag72
atp2645
Rp2646
sg10
g11
(S'\x07\xe1\x02\r'
p2647
tp2648
Rp2649
ssI1220014
(dp2650
g2
g3
((lp2651
g339
ag19
ag340
ag144
atp2652
Rp2653
sg10
g11
(S'\x07\xe1\x02\r'
p2654
tp2655
Rp2656
ssI1220020
(dp2657
g279
g3
((lp2658
g422
ag2130
ag423
atp2659
Rp2660
sg286
g11
(S'\x07\xe1\x02\r'
p2661
tp2662
Rp2663
ssI1220026
(dp2664
g2
g3
((lp2665
g456
ag457
ag205
ag71
atp2666
Rp2667
sg10
g11
(S'\x07\xe1\x02\r'
p2668
tp2669
Rp2670
ssI1203646
(dp2671
g2
g3
((lp2672
g465
ag1088
ag71
ag162
atp2673
Rp2674
sg10
g11
(S'\x07\xe1\x02\x0c'
p2675
tp2676
Rp2677
ssI1220034
(dp2678
g2
g3
((lp2679
g29
ag18
ag152
atp2680
Rp2681
sg10
g11
(S'\x07\xe1\x02\r'
p2682
tp2683
Rp2684
ssI1220036
(dp2685
g354
g3
((lp2686
S'Europe'
p2687
ag403
aS'Repeat Borrower'
p2688
aS'Transportation'
p2689
aS'Armenia'
p2690
atp2691
Rp2692
sg362
g11
(S'\x07\xe1\x02\r'
p2693
tp2694
Rp2695
ssI1220037
(dp2696
g2
g3
((lp2697
g143
ag205
ag71
atp2698
Rp2699
sg10
g11
(S'\x07\xe1\x02\r'
p2700
tp2701
Rp2702
ssI1220040
(dp2703
g257
g3
((lp2704
g432
ag433
aS'Eco-friendly'
p2705
ag1173
atp2706
Rp2707
sg267
g11
(S'\x07\xe1\x02\r'
p2708
tp2709
Rp2710
ssI1220045
(dp2711
g279
g3
((lp2712
g422
ag423
ag281
ag424
atp2713
Rp2714
sg286
g11
(S'\x07\xe1\x02\r'
p2715
tp2716
Rp2717
ssI1220049
(dp2718
g2
g3
((lp2719
g17
ag29
ag18
atp2720
Rp2721
sg10
g11
(S'\x07\xe1\x02\r'
p2722
tp2723
Rp2724
ssI1220050
(dp2725
g2
g3
((lp2726
g17
ag18
ag5
atp2727
Rp2728
sg10
g11
(S'\x07\xe1\x02\r'
p2729
tp2730
Rp2731
ssI1220051
(dp2732
g2
g3
((lp2733
g37
ag17
ag18
ag144
atp2734
Rp2735
sg10
g11
(S'\x07\xe1\x02\r'
p2736
tp2737
Rp2738
ssI1220052
(dp2739
g2
g3
((lp2740
g456
ag457
ag205
ag71
atp2741
Rp2742
sg10
g11
(S'\x07\xe1\x02\r'
p2743
tp2744
Rp2745
ssI1220053
(dp2746
g2
g3
((lp2747
g234
ag70
ag71
ag72
atp2748
Rp2749
sg10
g11
(S'\x07\xe1\x02\r'
p2750
tp2751
Rp2752
ssI1220054
(dp2753
g2
g3
((lp2754
g17
ag18
ag104
atp2755
Rp2756
sg10
g11
(S'\x07\xe1\x02\r'
p2757
tp2758
Rp2759
ssI1220055
(dp2760
g2
g3
((lp2761
g37
ag17
ag18
atp2762
Rp2763
sg10
g11
(S'\x07\xe1\x02\r'
p2764
tp2765
Rp2766
ssI1220058
(dp2767
g2
g3
((lp2768
g37
ag18
ag38
atp2769
Rp2770
sg10
g11
(S'\x07\xe1\x02\x0c'
p2771
tp2772
Rp2773
ssI1220059
(dp2774
g374
g3
((lp2775
g376
ag377
ag684
ag379
aS'Woman Owned Biz'
p2776
atp2777
Rp2778
sg383
g11
(S'\x07\xe1\x02\r'
p2779
tp2780
Rp2781
ssI1220062
(dp2782
g2
g3
((lp2783
g70
ag1675
ag71
ag72
atp2784
Rp2785
sg10
g11
(S'\x07\xe1\x02\r'
p2786
tp2787
Rp2788
ssI1220064
(dp2789
g2
g3
((lp2790
g17
ag18
ag104
atp2791
Rp2792
sg10
g11
(S'\x07\xe1\x02\r'
p2793
tp2794
Rp2795
ssI1220065
(dp2796
g2
g3
((lp2797
g507
ag457
ag18
ag144
atp2798
Rp2799
sg10
g11
(S'\x07\xe1\x02\r'
p2800
tp2801
Rp2802
ssI1220066
(dp2803
g2
g3
((lp2804
g104
ag18
ag38
atp2805
Rp2806
sg10
g11
(S'\x07\xe1\x02\x0c'
p2807
tp2808
Rp2809
ssI1220069
(dp2810
g169
g3
((lp2811
S'Indonesia'
p2812
aS'Personal Use'
p2813
ag173
aS'Green'
p2814
ag1559
ag579
atp2815
Rp2816
sg176
g11
(S'\x07\xe1\x02\r'
p2817
tp2818
Rp2819
ssI1220071
(dp2820
g2
g3
((lp2821
S'Burundi'
p2822
ag37
ag18
ag1328
atp2823
Rp2824
sg10
g11
(S'\x07\xe1\x02\r'
p2825
tp2826
Rp2827
ssI1220073
(dp2828
g2
g3
((lp2829
g70
ag104
ag71
ag72
atp2830
Rp2831
sg10
g11
(S'\x07\xe1\x02\r'
p2832
tp2833
Rp2834
ssI1220075
(dp2835
g2
g3
((lp2836
S'Dominican Republic'
p2837
ag29
ag7
atp2838
Rp2839
sg10
g11
(S'\x07\xe1\x02\r'
p2840
tp2841
Rp2842
ssI1220076
(dp2843
g2
g3
((lp2844
g2837
ag29
ag7
atp2845
Rp2846
sg10
g11
(S'\x07\xe1\x02\r'
p2847
tp2848
Rp2849
ssI1220077
(dp2850
g2
g3
((lp2851
g2837
ag104
ag7
atp2852
Rp2853
sg10
g11
(S'\x07\xe1\x02\r'
p2854
tp2855
Rp2856
ssI1220078
(dp2857
g2
g3
((lp2858
g37
ag2837
ag7
atp2859
Rp2860
sg10
g11
(S'\x07\xe1\x02\r'
p2861
tp2862
Rp2863
ssI1220081
(dp2864
S'elements'
p2865
g3
((lp2866
S'Kenya'
p2867
aS'Africa'
p2868
aS'Personal Use'
p2869
aS'user_favorite'
p2870
atp2871
Rp2872
sS'expired_at'
p2873
g11
(S'\x07\xe1\x02\r'
p2874
tp2875
Rp2876
ssI1220084
(dp2877
g2
g3
((lp2878
g17
ag18
ag19
ag144
atp2879
Rp2880
sg10
g11
(S'\x07\xe1\x02\r'
p2881
tp2882
Rp2883
ssI1220085
(dp2884
g2
g3
((lp2885
g37
ag18
ag152
atp2886
Rp2887
sg10
g11
(S'\x07\xe1\x02\r'
p2888
tp2889
Rp2890
ssI1220088
(dp2891
g2
g3
((lp2892
g17
ag18
ag19
ag144
atp2893
Rp2894
sg10
g11
(S'\x07\xe1\x02\r'
p2895
tp2896
Rp2897
ssI1220089
(dp2898
g2
g3
((lp2899
g80
ag19
ag81
ag72
atp2900
Rp2901
sg10
g11
(S'\x07\xe1\x02\x0c'
p2902
tp2903
Rp2904
ssI1220090
(dp2905
g2
g3
((lp2906
g17
ag18
ag19
ag144
atp2907
Rp2908
sg10
g11
(S'\x07\xe1\x02\r'
p2909
tp2910
Rp2911
ssI1220091
(dp2912
g2
g3
((lp2913
g17
ag18
ag19
ag144
atp2914
Rp2915
sg10
g11
(S'\x07\xe1\x02\r'
p2916
tp2917
Rp2918
ssI1220092
(dp2919
g2
g3
((lp2920
g17
ag18
ag19
ag144
atp2921
Rp2922
sg10
g11
(S'\x07\xe1\x02\r'
p2923
tp2924
Rp2925
ssI1220093
(dp2926
g2
g3
((lp2927
g17
ag18
ag19
ag144
atp2928
Rp2929
sg10
g11
(S'\x07\xe1\x02\r'
p2930
tp2931
Rp2932
ssI1209855
(dp2933
g2
g3
((lp2934
g37
ag18
ag786
ag162
atp2935
Rp2936
sg10
g11
(S'\x07\xe1\x02\x0c'
p2937
tp2938
Rp2939
ssI1220096
(dp2940
g2
g3
((lp2941
g37
ag17
ag18
atp2942
Rp2943
sg10
g11
(S'\x07\xe1\x02\r'
p2944
tp2945
Rp2946
ssI1220098
(dp2947
g374
g3
((lp2948
S'Ghana'
p2949
ag1030
ag544
aS'Woman Owned Biz'
p2950
atp2951
Rp2952
sg383
g11
(S'\x07\xe1\x02\r'
p2953
tp2954
Rp2955
ssI1220100
(dp2956
g2
g3
((lp2957
g80
ag19
ag162
aS'Ecuador'
p2958
ag72
atp2959
Rp2960
sg10
g11
(S'\x07\xe1\x02\x0c'
p2961
tp2962
Rp2963
ssI1220102
(dp2964
g2
g3
((lp2965
g37
ag18
ag152
atp2966
Rp2967
sg10
g11
(S'\x07\xe1\x02\r'
p2968
tp2969
Rp2970
ssI1220105
(dp2971
g257
g3
((lp2972
g922
ag433
aS'Burkina Faso'
p2973
aS'Eco-friendly'
p2974
atp2975
Rp2976
sg267
g11
(S'\x07\xe1\x02\r'
p2977
tp2978
Rp2979
ssI1220107
(dp2980
g2
g3
((lp2981
g2822
ag104
ag18
ag1328
atp2982
Rp2983
sg10
g11
(S'\x07\xe1\x02\r'
p2984
tp2985
Rp2986
ssI1220109
(dp2987
g2
g3
((lp2988
g80
ag19
ag162
ag2958
ag72
atp2989
Rp2990
sg10
g11
(S'\x07\xe1\x02\x0c'
p2991
tp2992
Rp2993
ssI1220110
(dp2994
g2
g3
((lp2995
g28
ag143
ag7
atp2996
Rp2997
sg10
g11
(S'\x07\xe1\x02\r'
p2998
tp2999
Rp3000
ssI1220111
(dp3001
g2
g3
((lp3002
g28
ag19
ag7
atp3003
Rp3004
sg10
g11
(S'\x07\xe1\x02\r'
p3005
tp3006
Rp3007
ssI1220113
(dp3008
g2
g3
((lp3009
g28
ag29
ag7
atp3010
Rp3011
sg10
g11
(S'\x07\xe1\x02\r'
p3012
tp3013
Rp3014
ssI1220114
(dp3015
g374
g3
((lp3016
g650
aS'Woman Owned Biz'
p3017
ag602
ag601
ag379
atp3018
Rp3019
sg383
g11
(S'\x07\xe1\x02\r'
p3020
tp3021
Rp3022
ssI1220116
(dp3023
g354
g3
((lp3024
g2225
aS'South_America'
p3025
aS'Underfunded Areas'
p3026
aS'Repeat Borrower'
p3027
aS'Agriculture'
p3028
aS'Ecuador'
p3029
atp3030
Rp3031
sg362
g11
(S'\x07\xe1\x02\x0c'
p3032
tp3033
Rp3034
ssI1220117
(dp3035
g279
g3
((lp3036
g833
ag2129
ag283
atp3037
Rp3038
sg286
g11
(S'\x07\xe1\x02\r'
p3039
tp3040
Rp3041
ssI1220119
(dp3042
g942
g3
((lp3043
S'Ghana'
p3044
aS'Services'
p3045
aS'Africa'
p3046
aS'Fabrics'
p3047
atp3048
Rp3049
sg950
g11
(S'\x07\xe1\x02\r'
p3050
tp3051
Rp3052
ssI1220129
(dp3053
g2
g3
((lp3054
g37
ag242
ag18
ag72
atp3055
Rp3056
sg10
g11
(S'\x07\xe1\x02\r'
p3057
tp3058
Rp3059
ssI1220130
(dp3060
g2
g3
((lp3061
g37
ag2837
ag7
atp3062
Rp3063
sg10
g11
(S'\x07\xe1\x02\r'
p3064
tp3065
Rp3066
ssI1220131
(dp3067
g2
g3
((lp3068
g874
ag29
ag7
ag162
atp3069
Rp3070
sg10
g11
(S'\x07\xe1\x02\x0c'
p3071
tp3072
Rp3073
ssI1220133
(dp3074
g2
g3
((lp3075
g2837
ag29
ag7
atp3076
Rp3077
sg10
g11
(S'\x07\xe1\x02\x0e'
p3078
tp3079
Rp3080
ssI1220135
(dp3081
g2
g3
((lp3082
g29
ag465
ag71
atp3083
Rp3084
sg10
g11
(S'\x07\xe1\x02\r'
p3085
tp3086
Rp3087
ssI1220137
(dp3088
g2
g3
((lp3089
g234
ag242
ag18
ag72
atp3090
Rp3091
sg10
g11
(S'\x07\xe1\x02\r'
p3092
tp3093
Rp3094
ssI1220139
(dp3095
g2
g3
((lp3096
g465
ag1088
ag71
ag162
atp3097
Rp3098
sg10
g11
(S'\x07\xe1\x02\r'
p3099
tp3100
Rp3101
ssI1220145
(dp3102
g279
g3
((lp3103
S'Health'
p3104
ag474
ag475
ag283
atp3105
Rp3106
sg286
g11
(S'\x07\xe1\x02\r'
p3107
tp3108
Rp3109
ssI1220149
(dp3110
g2
g3
((lp3111
g144
ag113
ag29
ag7
ag162
atp3112
Rp3113
sg10
g11
(S'\x07\xe1\x02\r'
p3114
tp3115
Rp3116
ssI1220152
(dp3117
g2
g3
((lp3118
g37
ag956
ag7
atp3119
Rp3120
sg10
g11
(S'\x07\xe1\x02\x0c'
p3121
tp3122
Rp3123
ssI1220154
(dp3124
g2
g3
((lp3125
g29
ag242
ag18
ag72
atp3126
Rp3127
sg10
g11
(S'\x07\xe1\x02\r'
p3128
tp3129
Rp3130
ssI1220155
(dp3131
g2
g3
((lp3132
g37
ag18
ag38
atp3133
Rp3134
sg10
g11
(S'\x07\xe1\x02\x0e'
p3135
tp3136
Rp3137
ssI1220156
(dp3138
g2
g3
((lp3139
g911
ag673
ag912
ag80
ag913
ag29
atp3140
Rp3141
sg10
g11
(S'\x07\xe1\x02\x0c'
p3142
tp3143
Rp3144
ssI1220159
(dp3145
g2
g3
((lp3146
g874
ag19
ag7
atp3147
Rp3148
sg10
g11
(S'\x07\xe1\x02\x0c'
p3149
tp3150
Rp3151
ssI1220161
(dp3152
g120
g3
((lp3153
S'Services'
p3154
aS'Haiti'
p3155
aS'Job Creation'
p3156
aS'North_America'
p3157
aS'Growing Businesses'
p3158
atp3159
Rp3160
sg128
g11
(S'\x07\xe1\x02\r'
p3161
tp3162
Rp3163
ssI1220162
(dp3164
g2
g3
((lp3165
g29
ag80
ag204
ag913
atp3166
Rp3167
sg10
g11
(S'\x07\xe1\x02\x0c'
p3168
tp3169
Rp3170
ssI1220164
(dp3171
g2
g3
((lp3172
g72
ag19
ag1480
ag7
atp3173
Rp3174
sg10
g11
(S'\x07\xe1\x02\x0c'
p3175
tp3176
Rp3177
ssI1220165
(dp3178
g2
g3
((lp3179
g204
ag80
ag19
ag913
atp3180
Rp3181
sg10
g11
(S'\x07\xe1\x02\x0c'
p3182
tp3183
Rp3184
ssI1220166
(dp3185
g374
g3
((lp3186
S'Woman Owned Biz'
p3187
ag635
ag602
ag601
ag379
atp3188
Rp3189
sg383
g11
(S'\x07\xe1\x02\r'
p3190
tp3191
Rp3192
ssI1220170
(dp3193
g2
g3
((lp3194
g306
ag29
ag18
atp3195
Rp3196
sg10
g11
(S'\x07\xe1\x02\x0e'
p3197
tp3198
Rp3199
ssI1220173
(dp3200
g2
g3
((lp3201
g37
ag18
ag38
atp3202
Rp3203
sg10
g11
(S'\x07\xe1\x02\x0e'
p3204
tp3205
Rp3206
ssI1220174
(dp3207
g2
g3
((lp3208
g874
ag72
ag19
ag7
ag162
atp3209
Rp3210
sg10
g11
(S'\x07\xe1\x02\x0c'
p3211
tp3212
Rp3213
ssI1220175
(dp3214
g2
g3
((lp3215
g911
ag673
ag912
ag80
ag913
ag29
atp3216
Rp3217
sg10
g11
(S'\x07\xe1\x02\x0c'
p3218
tp3219
Rp3220
ssI1220176
(dp3221
g2
g3
((lp3222
g306
ag29
ag18
atp3223
Rp3224
sg10
g11
(S'\x07\xe1\x02\x0e'
p3225
tp3226
Rp3227
ssI1220178
(dp3228
g2
g3
((lp3229
g29
ag18
ag38
atp3230
Rp3231
sg10
g11
(S'\x07\xe1\x02\x0e'
p3232
tp3233
Rp3234
ssI1220179
(dp3235
g2
g3
((lp3236
g104
ag18
ag38
atp3237
Rp3238
sg10
g11
(S'\x07\xe1\x02\x0e'
p3239
tp3240
Rp3241
ssI1220180
(dp3242
g2
g3
((lp3243
g874
ag37
ag7
ag162
atp3244
Rp3245
sg10
g11
(S'\x07\xe1\x02\x0c'
p3246
tp3247
Rp3248
ssI1220182
(dp3249
g2
g3
((lp3250
g19
ag956
ag7
atp3251
Rp3252
sg10
g11
(S'\x07\xe1\x02\x0c'
p3253
tp3254
Rp3255
ssI1220183
(dp3256
g2
g3
((lp3257
g29
ag80
ag204
ag913
atp3258
Rp3259
sg10
g11
(S'\x07\xe1\x02\x0c'
p3260
tp3261
Rp3262
ssI1220185
(dp3263
g2
g3
((lp3264
g234
ag80
ag913
atp3265
Rp3266
sg10
g11
(S'\x07\xe1\x02\x0c'
p3267
tp3268
Rp3269
ssI1220186
(dp3270
g2
g3
((lp3271
g29
ag80
ag913
atp3272
Rp3273
sg10
g11
(S'\x07\xe1\x02\r'
p3274
tp3275
Rp3276
ssI1216092
(dp3277
g2
g3
((lp3278
g37
ag242
ag18
ag72
atp3279
Rp3280
sg10
g11
(S'\x07\xe1\x02\r'
p3281
tp3282
Rp3283
ssI1220189
(dp3284
g2
g3
((lp3285
g37
ag80
ag913
atp3286
Rp3287
sg10
g11
(S'\x07\xe1\x02\x0c'
p3288
tp3289
Rp3290
ssI1220190
(dp3291
g2
g3
((lp3292
g234
ag80
ag913
atp3293
Rp3294
sg10
g11
(S'\x07\xe1\x02\x0c'
p3295
tp3296
Rp3297
ssI1220192
(dp3298
g2
g3
((lp3299
g29
ag80
ag913
atp3300
Rp3301
sg10
g11
(S'\x07\xe1\x02\x0c'
p3302
tp3303
Rp3304
ssI1220193
(dp3305
g2
g3
((lp3306
g37
ag80
ag913
atp3307
Rp3308
sg10
g11
(S'\x07\xe1\x02\x0c'
p3309
tp3310
Rp3311
ssI1220194
(dp3312
g2
g3
((lp3313
g80
ag104
ag913
atp3314
Rp3315
sg10
g11
(S'\x07\xe1\x02\x0c'
p3316
tp3317
Rp3318
ssI1220195
(dp3319
g2
g3
((lp3320
g234
ag80
ag913
atp3321
Rp3322
sg10
g11
(S'\x07\xe1\x02\x0c'
p3323
tp3324
Rp3325
ssI1220198
(dp3326
g2
g3
((lp3327
g874
ag37
ag7
atp3328
Rp3329
sg10
g11
(S'\x07\xe1\x02\x0c'
p3330
tp3331
Rp3332
ssI1220199
(dp3333
g2
g3
((lp3334
g80
ag19
ag913
ag144
atp3335
Rp3336
sg10
g11
(S'\x07\xe1\x02\x0c'
p3337
tp3338
Rp3339
ssI1220200
(dp3340
g2
g3
((lp3341
g80
ag19
ag913
ag144
atp3342
Rp3343
sg10
g11
(S'\x07\xe1\x02\x0c'
p3344
tp3345
Rp3346
ssI1220201
(dp3347
g2
g3
((lp3348
g80
ag19
ag913
ag144
atp3349
Rp3350
sg10
g11
(S'\x07\xe1\x02\x0c'
p3351
tp3352
Rp3353
ssI1220202
(dp3354
g2
g3
((lp3355
g80
ag19
ag913
ag144
atp3356
Rp3357
sg10
g11
(S'\x07\xe1\x02\x0c'
p3358
tp3359
Rp3360
ssI1220203
(dp3361
g2
g3
((lp3362
g234
ag72
ag1480
ag7
atp3363
Rp3364
sg10
g11
(S'\x07\xe1\x02\r'
p3365
tp3366
Rp3367
ssI1220206
(dp3368
g2
g3
((lp3369
g80
ag19
ag913
ag144
atp3370
Rp3371
sg10
g11
(S'\x07\xe1\x02\x0c'
p3372
tp3373
Rp3374
ssI1220207
(dp3375
g2
g3
((lp3376
g80
ag19
ag913
ag144
atp3377
Rp3378
sg10
g11
(S'\x07\xe1\x02\x0c'
p3379
tp3380
Rp3381
ssI1220208
(dp3382
g2
g3
((lp3383
g80
ag19
ag913
ag144
atp3384
Rp3385
sg10
g11
(S'\x07\xe1\x02\x0c'
p3386
tp3387
Rp3388
ssI1220209
(dp3389
g2
g3
((lp3390
g80
ag19
ag913
ag144
atp3391
Rp3392
sg10
g11
(S'\x07\xe1\x02\x0c'
p3393
tp3394
Rp3395
ssI1220210
(dp3396
g2
g3
((lp3397
g80
ag19
ag913
ag144
atp3398
Rp3399
sg10
g11
(S'\x07\xe1\x02\x0c'
p3400
tp3401
Rp3402
ssI1205876
(dp3403
g374
g3
((lp3404
S'Woman Owned Biz'
p3405
ag1931
ag497
ag379
atp3406
Rp3407
sg383
g11
(S'\x07\xe1\x02\r'
p3408
tp3409
Rp3410
ssI1220213
(dp3411
g2
g3
((lp3412
g28
ag29
ag7
atp3413
Rp3414
sg10
g11
(S'\x07\xe1\x02\x0c'
p3415
tp3416
Rp3417
ssI1220214
(dp3418
g2
g3
((lp3419
g80
ag19
ag913
ag144
atp3420
Rp3421
sg10
g11
(S'\x07\xe1\x02\x0c'
p3422
tp3423
Rp3424
ssI1216119
(dp3425
g2
g3
((lp3426
g37
ag242
ag18
ag72
atp3427
Rp3428
sg10
g11
(S'\x07\xe1\x02\r'
p3429
tp3430
Rp3431
ssI1220216
(dp3432
g2
g3
((lp3433
g80
ag19
ag913
ag144
atp3434
Rp3435
sg10
g11
(S'\x07\xe1\x02\r'
p3436
tp3437
Rp3438
ssI1220217
(dp3439
g2
g3
((lp3440
g874
ag29
ag7
atp3441
Rp3442
sg10
g11
(S'\x07\xe1\x02\r'
p3443
tp3444
Rp3445
ssI1220218
(dp3446
g2
g3
((lp3447
g80
ag19
ag913
ag144
atp3448
Rp3449
sg10
g11
(S'\x07\xe1\x02\x0c'
p3450
tp3451
Rp3452
ssI1220219
(dp3453
g2
g3
((lp3454
g80
ag19
ag913
ag144
atp3455
Rp3456
sg10
g11
(S'\x07\xe1\x02\x0c'
p3457
tp3458
Rp3459
ssI1220220
(dp3460
g169
g3
((lp3461
g983
aS'Vulnerable Groups'
p3462
aS'Manufacturing'
p3463
ag935
aS'Conflict Zones'
p3464
atp3465
Rp3466
sg176
g11
(S'\x07\xe1\x02\x0c'
p3467
tp3468
Rp3469
ssI1220221
(dp3470
g2
g3
((lp3471
g80
ag19
ag913
ag144
atp3472
Rp3473
sg10
g11
(S'\x07\xe1\x02\x0c'
p3474
tp3475
Rp3476
ssI1220222
(dp3477
g2
g3
((lp3478
g80
ag19
ag913
ag144
atp3479
Rp3480
sg10
g11
(S'\x07\xe1\x02\x0c'
p3481
tp3482
Rp3483
ssI1205888
(dp3484
g169
g3
((lp3485
S'Refugees\\/Displaced'
p3486
ag3463
aS'Lebanon'
p3487
ag3462
ag173
atp3488
Rp3489
sg176
g11
(S'\x07\xe1\x02\r'
p3490
tp3491
Rp3492
ssI1220225
(dp3493
g2
g3
((lp3494
g27
ag80
ag19
ag913
atp3495
Rp3496
sg10
g11
(S'\x07\xe1\x02\r'
p3497
tp3498
Rp3499
ssI1220228
(dp3500
g2
g3
((lp3501
g27
ag80
ag19
ag913
atp3502
Rp3503
sg10
g11
(S'\x07\xe1\x02\x0c'
p3504
tp3505
Rp3506
ssI1220229
(dp3507
g2
g3
((lp3508
g27
ag80
ag19
ag913
atp3509
Rp3510
sg10
g11
(S'\x07\xe1\x02\x0c'
p3511
tp3512
Rp3513
ssI1220230
(dp3514
g2
g3
((lp3515
g27
ag29
ag80
ag913
atp3516
Rp3517
sg10
g11
(S'\x07\xe1\x02\x0c'
p3518
tp3519
Rp3520
ssI1220231
(dp3521
g2
g3
((lp3522
g27
ag29
ag80
ag913
atp3523
Rp3524
sg10
g11
(S'\x07\xe1\x02\x0c'
p3525
tp3526
Rp3527
ssI1220232
(dp3528
g374
g3
((lp3529
g601
ag1030
aS'South_America'
p3530
aS'Colombia'
p3531
ag605
aS'Woman Owned Biz'
p3532
atp3533
Rp3534
sg383
g11
(S'\x07\xe1\x02\x0c'
p3535
tp3536
Rp3537
ssI1220234
(dp3538
g2
g3
((lp3539
g874
ag104
ag7
atp3540
Rp3541
sg10
g11
(S'\x07\xe1\x02\x0c'
p3542
tp3543
Rp3544
ssI1220235
(dp3545
g2
g3
((lp3546
g37
ag2315
ag80
ag162
ag913
atp3547
Rp3548
sg10
g11
(S'\x07\xe1\x02\x0c'
p3549
tp3550
Rp3551
ssI1220236
(dp3552
g2
g3
((lp3553
g234
ag2315
ag80
ag162
ag913
atp3554
Rp3555
sg10
g11
(S'\x07\xe1\x02\x0c'
p3556
tp3557
Rp3558
ssI1220237
(dp3559
g2
g3
((lp3560
g2315
ag80
ag104
ag162
ag913
atp3561
Rp3562
sg10
g11
(S'\x07\xe1\x02\x0c'
p3563
tp3564
Rp3565
ssI1220238
(dp3566
g169
g3
((lp3567
g1558
ag3486
aS'South_America'
p3568
ag3462
aS'Colombia'
p3569
atp3570
Rp3571
sg176
g11
(S'\x07\xe1\x02\r'
p3572
tp3573
Rp3574
ssI1220240
(dp3575
g2
g3
((lp3576
g80
ag19
ag2958
atp3577
Rp3578
sg10
g11
(S'\x07\xe1\x02\r'
p3579
tp3580
Rp3581
ssI1220241
(dp3582
g2
g3
((lp3583
g2315
ag80
ag143
ag162
ag913
atp3584
Rp3585
sg10
g11
(S'\x07\xe1\x02\r'
p3586
tp3587
Rp3588
ssI1220243
(dp3589
g2
g3
((lp3590
g37
ag956
ag7
atp3591
Rp3592
sg10
g11
(S'\x07\xe1\x02\r'
p3593
tp3594
Rp3595
ssI1220244
(dp3596
g2
g3
((lp3597
g37
ag956
ag7
atp3598
Rp3599
sg10
g11
(S'\x07\xe1\x02\r'
p3600
tp3601
Rp3602
ssI1220245
(dp3603
g2
g3
((lp3604
g1226
ag956
ag7
ag1088
atp3605
Rp3606
sg10
g11
(S'\x07\xe1\x02\r'
p3607
tp3608
Rp3609
ssI1220246
(dp3610
g2
g3
((lp3611
g1226
ag956
ag7
ag1088
atp3612
Rp3613
sg10
g11
(S'\x07\xe1\x02\r'
p3614
tp3615
Rp3616
ssI1220249
(dp3617
g2
g3
((lp3618
g113
ag144
ag19
ag7
ag162
atp3619
Rp3620
sg10
g11
(S'\x07\xe1\x02\r'
p3621
tp3622
Rp3623
ssI1220250
(dp3624
g2
g3
((lp3625
g113
ag144
ag19
ag7
ag162
atp3626
Rp3627
sg10
g11
(S'\x07\xe1\x02\r'
p3628
tp3629
Rp3630
ssI1220251
(dp3631
g120
g3
((lp3632
S'Vulnerable Groups'
p3633
ag3155
ag135
ag3157
ag331
atp3634
Rp3635
sg128
g11
(S'\x07\xe1\x02\r'
p3636
tp3637
Rp3638
ssI1220253
(dp3639
g2
g3
((lp3640
g911
ag673
ag912
ag80
ag913
ag29
atp3641
Rp3642
sg10
g11
(S'\x07\xe1\x02\r'
p3643
tp3644
Rp3645
ssI1220254
(dp3646
g169
g3
((lp3647
g3462
aS'Haiti'
p3648
ag172
ag935
ag579
atp3649
Rp3650
sg176
g11
(S'\x07\xe1\x02\r'
p3651
tp3652
Rp3653
ssI1220256
(dp3654
g257
g3
((lp3655
g259
aS'Eco-friendly'
p3656
aS'Haiti'
p3657
ag1173
ag924
ag264
atp3658
Rp3659
sg267
g11
(S'\x07\xe1\x02\r'
p3660
tp3661
Rp3662
ssI1220257
(dp3663
g2
g3
((lp3664
g874
ag37
ag7
ag162
atp3665
Rp3666
sg10
g11
(S'\x07\xe1\x02\r'
p3667
tp3668
Rp3669
ssI1220260
(dp3670
g2
g3
((lp3671
g104
ag6
ag7
atp3672
Rp3673
sg10
g11
(S'\x07\xe1\x02\r'
p3674
tp3675
Rp3676
ssI1220262
(dp3677
g2
g3
((lp3678
g874
ag29
ag7
ag1328
ag162
atp3679
Rp3680
sg10
g11
(S'\x07\xe1\x02\r'
p3681
tp3682
Rp3683
ssI1220263
(dp3684
g2
g3
((lp3685
g874
ag37
ag7
ag162
atp3686
Rp3687
sg10
g11
(S'\x07\xe1\x02\r'
p3688
tp3689
Rp3690
ssI1220264
(dp3691
g2
g3
((lp3692
g80
ag29
ag896
atp3693
Rp3694
sg10
g11
(S'\x07\xe1\x02\r'
p3695
tp3696
Rp3697
ssI1220265
(dp3698
g2
g3
((lp3699
g1116
ag456
ag80
ag457
atp3700
Rp3701
sg10
g11
(S'\x07\xe1\x02\r'
p3702
tp3703
Rp3704
ssI1220268
(dp3705
g2
g3
((lp3706
g874
ag72
ag5
ag7
ag162
atp3707
Rp3708
sg10
g11
(S'\x07\xe1\x02\r'
p3709
tp3710
Rp3711
ssI1220269
(dp3712
g2
g3
((lp3713
g874
ag19
ag7
atp3714
Rp3715
sg10
g11
(S'\x07\xe1\x02\r'
p3716
tp3717
Rp3718
ssI1220270
(dp3719
g257
g3
((lp3720
g775
aS'Nicaragua'
p3721
ag924
aS'Eco-friendly'
p3722
atp3723
Rp3724
sg267
g11
(S'\x07\xe1\x02\r'
p3725
tp3726
Rp3727
ssI1220272
(dp3728
g2
g3
((lp3729
g456
ag80
ag457
ag81
atp3730
Rp3731
sg10
g11
(S'\x07\xe1\x02\r'
p3732
tp3733
Rp3734
ssI1220275
(dp3735
g2
g3
((lp3736
g29
ag80
ag913
ag144
atp3737
Rp3738
sg10
g11
(S'\x07\xe1\x02\r'
p3739
tp3740
Rp3741
ssI1220276
(dp3742
g2
g3
((lp3743
g456
ag80
ag457
ag81
atp3744
Rp3745
sg10
g11
(S'\x07\xe1\x02\r'
p3746
tp3747
Rp3748
ssI1220277
(dp3749
g2
g3
((lp3750
g204
ag80
ag19
ag913
atp3751
Rp3752
sg10
g11
(S'\x07\xe1\x02\r'
p3753
tp3754
Rp3755
ssI1220278
(dp3756
g2
g3
((lp3757
g37
ag80
ag896
atp3758
Rp3759
sg10
g11
(S'\x07\xe1\x02\r'
p3760
tp3761
Rp3762
ssI1220279
(dp3763
g2
g3
((lp3764
g234
ag2315
ag80
ag162
ag913
atp3765
Rp3766
sg10
g11
(S'\x07\xe1\x02\r'
p3767
tp3768
Rp3769
ssI1220280
(dp3770
g2
g3
((lp3771
g37
ag80
ag913
atp3772
Rp3773
sg10
g11
(S'\x07\xe1\x02\r'
p3774
tp3775
Rp3776
ssI1220212
(dp3777
g374
g3
((lp3778
S'Woman Owned Biz'
p3779
ag3530
ag497
ag3531
ag378
atp3780
Rp3781
sg383
g11
(S'\x07\xe1\x02\x0c'
p3782
tp3783
Rp3784
ssI1220282
(dp3785
g120
g3
((lp3786
S'Youth'
p3787
aS'Arts'
p3788
aS'South_America'
p3789
aS'Colombia'
p3790
atp3791
Rp3792
sg128
g11
(S'\x07\xe1\x02\r'
p3793
tp3794
Rp3795
ssI1220283
(dp3796
g2
g3
((lp3797
g19
ag956
ag7
atp3798
Rp3799
sg10
g11
(S'\x07\xe1\x02\r'
p3800
tp3801
Rp3802
ssI1220284
(dp3803
g2
g3
((lp3804
g80
ag19
ag913
ag144
atp3805
Rp3806
sg10
g11
(S'\x07\xe1\x02\r'
p3807
tp3808
Rp3809
ssI1220285
(dp3810
g2
g3
((lp3811
g911
ag673
ag912
ag80
ag913
ag234
atp3812
Rp3813
sg10
g11
(S'\x07\xe1\x02\r'
p3814
tp3815
Rp3816
ssI1220286
(dp3817
g120
g3
((lp3818
S'Refugees\\/Displaced'
p3819
ag3789
ag135
ag3633
ag3790
atp3820
Rp3821
sg128
g11
(S'\x07\xe1\x02\r'
p3822
tp3823
Rp3824
ssI1220287
(dp3825
g354
g3
((lp3826
S'Repeat Borrower'
p3827
ag3025
ag405
ag1471
aS'Peru'
p3828
atp3829
Rp3830
sg362
g11
(S'\x07\xe1\x02\r'
p3831
tp3832
Rp3833
ssI1220288
(dp3834
g257
g3
((lp3835
g2545
ag259
aS'South_America'
p3836
aS'Eco-friendly'
p3837
aS'Colombia'
p3838
aS'Refugees\\/Displaced'
p3839
atp3840
Rp3841
sg267
g11
(S'\x07\xe1\x02\r'
p3842
tp3843
Rp3844
ssI1220289
(dp3845
g2
g3
((lp3846
g80
ag896
ag104
atp3847
Rp3848
sg10
g11
(S'\x07\xe1\x02\r'
p3849
tp3850
Rp3851
ssI1220290
(dp3852
g2
g3
((lp3853
g911
ag37
ag912
ag80
ag673
ag913
atp3854
Rp3855
sg10
g11
(S'\x07\xe1\x02\r'
p3856
tp3857
Rp3858
ssI1220291
(dp3859
g2
g3
((lp3860
g37
ag80
ag896
atp3861
Rp3862
sg10
g11
(S'\x07\xe1\x02\r'
p3863
tp3864
Rp3865
ssI1220292
(dp3866
g2
g3
((lp3867
g911
ag673
ag912
ag80
ag913
ag29
atp3868
Rp3869
sg10
g11
(S'\x07\xe1\x02\r'
p3870
tp3871
Rp3872
ssI1220293
(dp3873
g2
g3
((lp3874
g234
ag956
ag7
atp3875
Rp3876
sg10
g11
(S'\x07\xe1\x02\r'
p3877
tp3878
Rp3879
ssI1220295
(dp3880
g2
g3
((lp3881
g37
ag80
ag896
atp3882
Rp3883
sg10
g11
(S'\x07\xe1\x02\r'
p3884
tp3885
Rp3886
ssI1220296
(dp3887
g2
g3
((lp3888
g911
ag673
ag912
ag80
ag913
ag29
atp3889
Rp3890
sg10
g11
(S'\x07\xe1\x02\r'
p3891
tp3892
Rp3893
ssI1220298
(dp3894
g2
g3
((lp3895
g29
ag956
ag7
ag162
atp3896
Rp3897
sg10
g11
(S'\x07\xe1\x02\r'
p3898
tp3899
Rp3900
ssI1220300
(dp3901
g2
g3
((lp3902
g104
ag956
ag7
atp3903
Rp3904
sg10
g11
(S'\x07\xe1\x02\r'
p3905
tp3906
Rp3907
ssI1220302
(dp3908
g354
g3
((lp3909
S'IPA Study'
p3910
aS'Innovative Loans'
p3911
aS'Flexible Credit Study'
p3912
ag3025
aS'Colombia'
p3913
aS'Services'
p3914
aS'Repeat Borrower'
p3915
atp3916
Rp3917
sg362
g11
(S'\x07\xe1\x02\r'
p3918
tp3919
Rp3920
ssI1220303
(dp3921
g2
g3
((lp3922
g911
ag673
ag912
ag80
ag913
ag104
atp3923
Rp3924
sg10
g11
(S'\x07\xe1\x02\r'
p3925
tp3926
Rp3927
ssI1220304
(dp3928
g374
g3
((lp3929
S'Woman Owned Biz'
p3930
aS'Higher Education'
p3931
ag3530
aS'Education'
p3932
aS'Peru'
p3933
atp3934
Rp3935
sg383
g11
(S'\x07\xe1\x02\r'
p3936
tp3937
Rp3938
ssI1220305
(dp3939
g2
g3
((lp3940
g911
ag673
ag912
ag80
ag913
ag29
atp3941
Rp3942
sg10
g11
(S'\x07\xe1\x02\r'
p3943
tp3944
Rp3945
ssI1220307
(dp3946
g2
g3
((lp3947
g37
ag6
ag7
atp3948
Rp3949
sg10
g11
(S'\x07\xe1\x02\r'
p3950
tp3951
Rp3952
ssI1220308
(dp3953
g374
g3
((lp3954
g1030
aS'Woman Owned Biz'
p3955
aS'Nicaragua'
p3956
ag966
atp3957
Rp3958
sg383
g11
(S'\x07\xe1\x02\r'
p3959
tp3960
Rp3961
ssI1220314
(dp3962
g374
g3
((lp3963
S'Woman Owned Biz'
p3964
aS'Health'
p3965
ag966
aS'Mexico'
p3966
atp3967
Rp3968
sg383
g11
(S'\x07\xe1\x02\r'
p3969
tp3970
Rp3971
ssI1220317
(dp3972
g169
g3
((lp3973
g172
aS'Mexico'
p3974
ag2814
ag935
ag579
atp3975
Rp3976
sg176
g11
(S'\x07\xe1\x02\r'
p3977
tp3978
Rp3979
ssI1220319
(dp3980
g354
g3
((lp3981
S'Philippines'
p3982
ag3028
aS'Repeat Borrower'
p3983
ag407
atp3984
Rp3985
sg362
g11
(S'\x07\xe1\x02\r'
p3986
tp3987
Rp3988
ssI1220320
(dp3989
g374
g3
((lp3990
S'Paraguay'
p3991
aS'Woman Owned Biz'
p3992
ag3931
ag3530
ag3932
atp3993
Rp3994
sg383
g11
(S'\x07\xe1\x02\r'
p3995
tp3996
Rp3997
ssI1220321
(dp3998
g2
g3
((lp3999
g1116
ag456
ag80
ag457
atp4000
Rp4001
sg10
g11
(S'\x07\xe1\x02\r'
p4002
tp4003
Rp4004
ssI1220323
(dp4005
g354
g3
((lp4006
S'Paraguay'
p4007
aS'Repeat Borrower'
p4008
ag3025
ag405
ag1471
atp4009
Rp4010
sg362
g11
(S'\x07\xe1\x02\r'
p4011
tp4012
Rp4013
ssI1220324
(dp4014
g2
g3
((lp4015
g1116
ag456
ag80
ag457
atp4016
Rp4017
sg10
g11
(S'\x07\xe1\x02\r'
p4018
tp4019
Rp4020
ssI1220325
(dp4021
g354
g3
((lp4022
g4007
aS'Repeat Borrower'
p4023
ag3025
ag405
ag1471
atp4024
Rp4025
sg362
g11
(S'\x07\xe1\x02\r'
p4026
tp4027
Rp4028
ssI1220326
(dp4029
g257
g3
((lp4030
g922
aS'Philippines'
p4031
aS'Eco-friendly'
p4032
ag260
atp4033
Rp4034
sg267
g11
(S'\x07\xe1\x02\r'
p4035
tp4036
Rp4037
ssI1220327
(dp4038
g2
g3
((lp4039
g1116
ag456
ag80
ag457
atp4040
Rp4041
sg10
g11
(S'\x07\xe1\x02\r'
p4042
tp4043
Rp4044
ssI1220328
(dp4045
g2
g3
((lp4046
g189
ag29
ag71
atp4047
Rp4048
sg10
g11
(S'\x07\xe1\x02\r'
p4049
tp4050
Rp4051
ssI1220329
(dp4052
g2
g3
((lp4053
g189
ag1088
ag71
atp4054
Rp4055
sg10
g11
(S'\x07\xe1\x02\r'
p4056
tp4057
Rp4058
ssI1220331
(dp4059
g374
g3
((lp4060
S'Woman Owned Biz'
p4061
ag1931
ag3932
ag3931
ag379
atp4062
Rp4063
sg383
g11
(S'\x07\xe1\x02\r'
p4064
tp4065
Rp4066
ssI1206000
(dp4067
g2
g3
((lp4068
g1270
ag457
ag71
atp4069
Rp4070
sg10
g11
(S'\x07\xe1\x02\r'
p4071
tp4072
Rp4073
ssI1220339
(dp4074
g2
g3
((lp4075
g189
ag160
ag71
atp4076
Rp4077
sg10
g11
(S'\x07\xe1\x02\r'
p4078
tp4079
Rp4080
ssI1220342
(dp4081
g257
g3
((lp4082
g4031
aS'Housing'
p4083
ag260
aS'Eco-friendly'
p4084
atp4085
Rp4086
sg267
g11
(S'\x07\xe1\x02\r'
p4087
tp4088
Rp4089
ssI1220343
(dp4090
g2
g3
((lp4091
g143
ag205
ag71
atp4092
Rp4093
sg10
g11
(S'\x07\xe1\x02\r'
p4094
tp4095
Rp4096
ssI1220345
(dp4097
g2
g3
((lp4098
g37
ag205
ag71
atp4099
Rp4100
sg10
g11
(S'\x07\xe1\x02\r'
p4101
tp4102
Rp4103
ssI1220346
(dp4104
g2
g3
((lp4105
g19
ag205
ag71
ag144
atp4106
Rp4107
sg10
g11
(S'\x07\xe1\x02\r'
p4108
tp4109
Rp4110
ssI1220347
(dp4111
g2
g3
((lp4112
g143
ag205
ag71
atp4113
Rp4114
sg10
g11
(S'\x07\xe1\x02\r'
p4115
tp4116
Rp4117
ssI1220350
(dp4118
g2
g3
((lp4119
g19
ag205
ag71
atp4120
Rp4121
sg10
g11
(S'\x07\xe1\x02\x0e'
p4122
tp4123
Rp4124
ssI1206018
(dp4125
g2
g3
((lp4126
g143
ag465
ag71
atp4127
Rp4128
sg10
g11
(S'\x07\xe1\x02\r'
p4129
tp4130
Rp4131
ssI1220357
(dp4132
g2
g3
((lp4133
g37
ag205
ag71
atp4134
Rp4135
sg10
g11
(S'\x07\xe1\x02\x0e'
p4136
tp4137
Rp4138
ssI1220358
(dp4139
g374
g3
((lp4140
S'Woman Owned Biz'
p4141
ag498
ag379
ag3965
ag378
atp4142
Rp4143
sg383
g11
(S'\x07\xe1\x02\r'
p4144
tp4145
Rp4146
ssI1220359
(dp4147
g2
g3
((lp4148
g19
ag205
ag71
ag144
atp4149
Rp4150
sg10
g11
(S'\x07\xe1\x02\r'
p4151
tp4152
Rp4153
ssI1220360
(dp4154
g2
g3
((lp4155
g143
ag205
ag71
atp4156
Rp4157
sg10
g11
(S'\x07\xe1\x02\r'
p4158
tp4159
Rp4160
ssI1220361
(dp4161
g2
g3
((lp4162
g70
ag5
ag71
ag144
atp4163
Rp4164
sg10
g11
(S'\x07\xe1\x02\r'
p4165
tp4166
Rp4167
ssI1220362
(dp4168
g2
g3
((lp4169
g234
ag70
ag71
ag144
atp4170
Rp4171
sg10
g11
(S'\x07\xe1\x02\r'
p4172
tp4173
Rp4174
ssI1220363
(dp4175
g2
g3
((lp4176
g70
ag5
ag71
ag144
atp4177
Rp4178
sg10
g11
(S'\x07\xe1\x02\r'
p4179
tp4180
Rp4181
ssI1220364
(dp4182
g2
g3
((lp4183
g234
ag70
ag71
ag144
atp4184
Rp4185
sg10
g11
(S'\x07\xe1\x02\r'
p4186
tp4187
Rp4188
ssI1220365
(dp4189
g2
g3
((lp4190
g70
ag5
ag71
ag144
atp4191
Rp4192
sg10
g11
(S'\x07\xe1\x02\r'
p4193
tp4194
Rp4195
ssI1220366
(dp4196
g2
g3
((lp4197
g70
ag5
ag71
ag144
atp4198
Rp4199
sg10
g11
(S'\x07\xe1\x02\r'
p4200
tp4201
Rp4202
ssI1220367
(dp4203
g2
g3
((lp4204
g234
ag70
ag71
ag144
atp4205
Rp4206
sg10
g11
(S'\x07\xe1\x02\r'
p4207
tp4208
Rp4209
ssI1220368
(dp4210
g2
g3
((lp4211
g234
ag205
ag71
atp4212
Rp4213
sg10
g11
(S'\x07\xe1\x02\r'
p4214
tp4215
Rp4216
ssI1220369
(dp4217
g2
g3
((lp4218
g37
ag70
ag71
ag144
atp4219
Rp4220
sg10
g11
(S'\x07\xe1\x02\r'
p4221
tp4222
Rp4223
ssI1220370
(dp4224
g2
g3
((lp4225
g234
ag70
ag71
ag144
atp4226
Rp4227
sg10
g11
(S'\x07\xe1\x02\r'
p4228
tp4229
Rp4230
ssI1220371
(dp4231
g2
g3
((lp4232
g234
ag70
ag71
ag144
atp4233
Rp4234
sg10
g11
(S'\x07\xe1\x02\r'
p4235
tp4236
Rp4237
ssI1220372
(dp4238
g2
g3
((lp4239
g70
ag1675
ag71
ag144
atp4240
Rp4241
sg10
g11
(S'\x07\xe1\x02\r'
p4242
tp4243
Rp4244
ssI1220373
(dp4245
g2
g3
((lp4246
g37
ag70
ag71
ag144
atp4247
Rp4248
sg10
g11
(S'\x07\xe1\x02\r'
p4249
tp4250
Rp4251
ssI1220375
(dp4252
g2
g3
((lp4253
g234
ag70
ag71
ag144
atp4254
Rp4255
sg10
g11
(S'\x07\xe1\x02\r'
p4256
tp4257
Rp4258
ssI1220376
(dp4259
g2
g3
((lp4260
g234
ag70
ag71
ag144
atp4261
Rp4262
sg10
g11
(S'\x07\xe1\x02\r'
p4263
tp4264
Rp4265
ssI1204868
(dp4266
g374
g3
((lp4267
g1030
aS'Togo'
p4268
ag544
aS'Woman Owned Biz'
p4269
atp4270
Rp4271
sg383
g11
(S'\x07\xe1\x02\x0c'
p4272
tp4273
Rp4274
ssI1220378
(dp4275
g2
g3
((lp4276
g37
ag70
ag71
ag144
atp4277
Rp4278
sg10
g11
(S'\x07\xe1\x02\r'
p4279
tp4280
Rp4281
ssI1220379
(dp4282
g2
g3
((lp4283
g456
ag457
ag205
ag71
atp4284
Rp4285
sg10
g11
(S'\x07\xe1\x02\r'
p4286
tp4287
Rp4288
ssI1220380
(dp4289
g2
g3
((lp4290
g234
ag70
ag71
ag144
atp4291
Rp4292
sg10
g11
(S'\x07\xe1\x02\r'
p4293
tp4294
Rp4295
ssI1220381
(dp4296
g2
g3
((lp4297
g234
ag70
ag71
ag144
atp4298
Rp4299
sg10
g11
(S'\x07\xe1\x02\r'
p4300
tp4301
Rp4302
ssI1220382
(dp4303
g2
g3
((lp4304
g234
ag70
ag71
ag144
atp4305
Rp4306
sg10
g11
(S'\x07\xe1\x02\r'
p4307
tp4308
Rp4309
ssI1220383
(dp4310
g2
g3
((lp4311
g234
ag70
ag71
ag144
atp4312
Rp4313
sg10
g11
(S'\x07\xe1\x02\r'
p4314
tp4315
Rp4316
ssI1220384
(dp4317
g2
g3
((lp4318
g234
ag70
ag71
ag144
atp4319
Rp4320
sg10
g11
(S'\x07\xe1\x02\r'
p4321
tp4322
Rp4323
ssI1220391
(dp4324
g2
g3
((lp4325
g37
ag70
ag71
ag144
atp4326
Rp4327
sg10
g11
(S'\x07\xe1\x02\r'
p4328
tp4329
Rp4330
ssI1220395
(dp4331
g120
g3
((lp4332
g134
aS'Health'
p4333
ag124
ag331
atp4334
Rp4335
sg128
g11
(S'\x07\xe1\x02\r'
p4336
tp4337
Rp4338
ssI1220398
(dp4339
g2
g3
((lp4340
g234
ag205
ag71
atp4341
Rp4342
sg10
g11
(S'\x07\xe1\x02\r'
p4343
tp4344
Rp4345
ssI1220399
(dp4346
g2865
g3
((lp4347
S'Food'
p4348
aS'Philippines'
p4349
ag2870
aS'Asia'
p4350
atp4351
Rp4352
sg2873
g11
(S'\x07\xe1\x02\r'
p4353
tp4354
Rp4355
ssI1220401
(dp4356
g279
g3
((lp4357
g2129
ag2130
ag283
atp4358
Rp4359
sg286
g11
(S'\x07\xe1\x02\r'
p4360
tp4361
Rp4362
ssI1220402
(dp4363
g279
g3
((lp4364
g2129
ag281
ag283
atp4365
Rp4366
sg286
g11
(S'\x07\xe1\x02\r'
p4367
tp4368
Rp4369
ssI1220403
(dp4370
g2
g3
((lp4371
g143
ag205
ag71
atp4372
Rp4373
sg10
g11
(S'\x07\xe1\x02\r'
p4374
tp4375
Rp4376
ssI1206069
(dp4377
g2
g3
((lp4378
g70
ag5
ag71
ag144
atp4379
Rp4380
sg10
g11
(S'\x07\xe1\x02\r'
p4381
tp4382
Rp4383
ssI1220407
(dp4384
g2
g3
((lp4385
g456
ag457
ag205
ag71
atp4386
Rp4387
sg10
g11
(S'\x07\xe1\x02\r'
p4388
tp4389
Rp4390
ssI1220422
(dp4391
g2
g3
((lp4392
g1116
ag29
ag80
atp4393
Rp4394
sg10
g11
(S'\x07\xe1\x02\r'
p4395
tp4396
Rp4397
ssI1220425
(dp4398
g257
g3
((lp4399
g4031
aS'Green'
p4400
ag4083
ag260
aS'Eco-friendly'
p4401
atp4402
Rp4403
sg267
g11
(S'\x07\xe1\x02\r'
p4404
tp4405
Rp4406
ssI1220426
(dp4407
g2
g3
((lp4408
g1116
ag29
ag80
atp4409
Rp4410
sg10
g11
(S'\x07\xe1\x02\r'
p4411
tp4412
Rp4413
ssI1220427
(dp4414
g257
g3
((lp4415
g4031
ag4400
ag4083
ag260
aS'Eco-friendly'
p4416
atp4417
Rp4418
sg267
g11
(S'\x07\xe1\x02\r'
p4419
tp4420
Rp4421
ssI1220432
(dp4422
g257
g3
((lp4423
g4031
ag4400
ag4083
ag260
aS'Eco-friendly'
p4424
atp4425
Rp4426
sg267
g11
(S'\x07\xe1\x02\r'
p4427
tp4428
Rp4429
ssI1220435
(dp4430
g257
g3
((lp4431
g4031
ag4400
aS'Personal Use'
p4432
ag260
aS'Eco-friendly'
p4433
atp4434
Rp4435
sg267
g11
(S'\x07\xe1\x02\r'
p4436
tp4437
Rp4438
ssI1220440
(dp4439
g2
g3
((lp4440
g189
ag1226
ag160
ag71
atp4441
Rp4442
sg10
g11
(S'\x07\xe1\x02\x0e'
p4443
tp4444
Rp4445
ssI1220443
(dp4446
g2
g3
((lp4447
g17
ag18
ag19
ag144
atp4448
Rp4449
sg10
g11
(S'\x07\xe1\x02\r'
p4450
tp4451
Rp4452
ssI1220446
(dp4453
g2
g3
((lp4454
g17
ag18
ag19
ag144
atp4455
Rp4456
sg10
g11
(S'\x07\xe1\x02\x0e'
p4457
tp4458
Rp4459
ssI1220447
(dp4460
g2
g3
((lp4461
g17
ag18
ag19
ag144
atp4462
Rp4463
sg10
g11
(S'\x07\xe1\x02\x0e'
p4464
tp4465
Rp4466
ssI1220448
(dp4467
g2
g3
((lp4468
g17
ag18
ag19
ag144
atp4469
Rp4470
sg10
g11
(S'\x07\xe1\x02\x0e'
p4471
tp4472
Rp4473
ssI1220449
(dp4474
g2
g3
((lp4475
g17
ag18
ag19
ag144
atp4476
Rp4477
sg10
g11
(S'\x07\xe1\x02\x0e'
p4478
tp4479
Rp4480
ssI1220450
(dp4481
g2
g3
((lp4482
g37
ag17
ag18
ag144
atp4483
Rp4484
sg10
g11
(S'\x07\xe1\x02\x0e'
p4485
tp4486
Rp4487
ssI1220451
(dp4488
g169
g3
((lp4489
S'Kenya'
p4490
ag577
ag172
ag579
atp4491
Rp4492
sg176
g11
(S'\x07\xe1\x02\x0e'
p4493
tp4494
Rp4495
ssI1220453
(dp4496
g2
g3
((lp4497
g339
ag456
aS'Georgia'
p4498
ag457
atp4499
Rp4500
sg10
g11
(S'\x07\xe1\x02\r'
p4501
tp4502
Rp4503
ssI1220454
(dp4504
g374
g3
((lp4505
g543
ag378
ag544
ag497
aS'Woman Owned Biz'
p4506
atp4507
Rp4508
sg383
g11
(S'\x07\xe1\x02\r'
p4509
tp4510
Rp4511
ssI1220456
(dp4512
g2
g3
((lp4513
g17
ag18
ag19
ag144
atp4514
Rp4515
sg10
g11
(S'\x07\xe1\x02\r'
p4516
tp4517
Rp4518
ssI1220457
(dp4519
g374
g3
((lp4520
S'Woman Owned Biz'
p4521
ag1931
ag1108
ag1106
ag379
atp4522
Rp4523
sg383
g11
(S'\x07\xe1\x02\x0e'
p4524
tp4525
Rp4526
ssI1220458
(dp4527
g2
g3
((lp4528
g189
ag243
aS'Water and Sanitation'
p4529
ag71
atp4530
Rp4531
sg10
g11
(S'\x07\xe1\x02\r'
p4532
tp4533
Rp4534
ssI1220460
(dp4535
g2
g3
((lp4536
g874
ag37
ag7
atp4537
Rp4538
sg10
g11
(S'\x07\xe1\x02\r'
p4539
tp4540
Rp4541
ssI1220461
(dp4542
g374
g3
((lp4543
S'Woman Owned Biz'
p4544
ag1931
aS'Construction'
p4545
ag1108
ag379
atp4546
Rp4547
sg383
g11
(S'\x07\xe1\x02\r'
p4548
tp4549
Rp4550
ssI1220464
(dp4551
g374
g3
((lp4552
S'Woman Owned Biz'
p4553
ag1931
ag4545
ag1108
ag379
atp4554
Rp4555
sg383
g11
(S'\x07\xe1\x02\r'
p4556
tp4557
Rp4558
ssI1220467
(dp4559
g2
g3
((lp4560
g874
ag29
ag7
ag162
atp4561
Rp4562
sg10
g11
(S'\x07\xe1\x02\r'
p4563
tp4564
Rp4565
ssI1220468
(dp4566
g1240
g3
((lp4567
S'El Salvador'
p4568
aS'Elderly'
p4569
aS'Woman Owned Biz'
p4570
aS'Repeat Borrower'
p4571
ag1867
aS'North_America'
p4572
ag1868
atp4573
Rp4574
sg1250
g11
(S'\x07\xe1\x02\r'
p4575
tp4576
Rp4577
ssI1220469
(dp4578
g279
g3
((lp4579
S'El Salvador'
p4580
ag281
aS'North_America'
p4581
atp4582
Rp4583
sg286
g11
(S'\x07\xe1\x02\r'
p4584
tp4585
Rp4586
ssI1220470
(dp4587
g120
g3
((lp4588
S'El Salvador'
p4589
ag3787
aS'Start-Up'
p4590
ag135
ag3157
atp4591
Rp4592
sg128
g11
(S'\x07\xe1\x02\r'
p4593
tp4594
Rp4595
ssI1220471
(dp4596
g374
g3
((lp4597
S'Woman Owned Biz'
p4598
ag3965
ag966
ag3966
atp4599
Rp4600
sg383
g11
(S'\x07\xe1\x02\r'
p4601
tp4602
Rp4603
ssI1220472
(dp4604
g2
g3
((lp4605
g339
aS'Albania'
p4606
ag143
ag72
atp4607
Rp4608
sg10
g11
(S'\x07\xe1\x02\r'
p4609
tp4610
Rp4611
ssI1220473
(dp4612
g2
g3
((lp4613
g1116
ag29
ag80
atp4614
Rp4615
sg10
g11
(S'\x07\xe1\x02\r'
p4616
tp4617
Rp4618
ssI1220474
(dp4619
g2
g3
((lp4620
g1116
ag29
ag80
atp4621
Rp4622
sg10
g11
(S'\x07\xe1\x02\r'
p4623
tp4624
Rp4625
ssI1220476
(dp4626
g2
g3
((lp4627
g1116
ag234
ag80
atp4628
Rp4629
sg10
g11
(S'\x07\xe1\x02\x0e'
p4630
tp4631
Rp4632
ssI1220480
(dp4633
g2
g3
((lp4634
g189
ag29
ag71
atp4635
Rp4636
sg10
g11
(S'\x07\xe1\x02\x0e'
p4637
tp4638
Rp4639
ssI1220482
(dp4640
g2
g3
((lp4641
g1116
ag37
ag80
ag1328
ag162
atp4642
Rp4643
sg10
g11
(S'\x07\xe1\x02\x0e'
p4644
tp4645
Rp4646
ssI1220483
(dp4647
g374
g3
((lp4648
g3991
ag650
ag3530
aS'Woman Owned Biz'
p4649
atp4650
Rp4651
sg383
g11
(S'\x07\xe1\x02\x0e'
p4652
tp4653
Rp4654
ssI1220484
(dp4655
g169
g3
((lp4656
S'Paraguay'
p4657
ag3568
ag172
atp4658
Rp4659
sg176
g11
(S'\x07\xe1\x02\x0e'
p4660
tp4661
Rp4662
ssI1220486
(dp4663
g2
g3
((lp4664
g1116
ag37
ag80
atp4665
Rp4666
sg10
g11
(S'\x07\xe1\x02\x0e'
p4667
tp4668
Rp4669
ssI1220487
(dp4670
g2
g3
((lp4671
g1116
ag80
ag104
atp4672
Rp4673
sg10
g11
(S'\x07\xe1\x02\x0e'
p4674
tp4675
Rp4676
ssI1220489
(dp4677
g2
g3
((lp4678
g1116
ag80
ag104
atp4679
Rp4680
sg10
g11
(S'\x07\xe1\x02\x0e'
p4681
tp4682
Rp4683
ssI1220491
(dp4684
g2
g3
((lp4685
g1116
ag37
ag80
atp4686
Rp4687
sg10
g11
(S'\x07\xe1\x02\x0e'
p4688
tp4689
Rp4690
ssI1220492
(dp4691
g2
g3
((lp4692
g1116
ag37
ag80
atp4693
Rp4694
sg10
g11
(S'\x07\xe1\x02\x0e'
p4695
tp4696
Rp4697
ssI1220493
(dp4698
g2
g3
((lp4699
g1116
ag29
ag80
atp4700
Rp4701
sg10
g11
(S'\x07\xe1\x02\x0e'
p4702
tp4703
Rp4704
ssI1220494
(dp4705
g2
g3
((lp4706
g1116
ag80
ag243
atp4707
Rp4708
sg10
g11
(S'\x07\xe1\x02\x0e'
p4709
tp4710
Rp4711
ssI1220495
(dp4712
g2
g3
((lp4713
g1116
ag456
ag80
ag457
atp4714
Rp4715
sg10
g11
(S'\x07\xe1\x02\x0e'
p4716
tp4717
Rp4718
ssI1220496
(dp4719
g2
g3
((lp4720
g1116
ag456
ag80
ag457
atp4721
Rp4722
sg10
g11
(S'\x07\xe1\x02\x0e'
p4723
tp4724
Rp4725
ssI1220504
(dp4726
g2
g3
((lp4727
g19
aS'Jordan'
p4728
ag71
atp4729
Rp4730
sg10
g11
(S'\x07\xe1\x02\x0e'
p4731
tp4732
Rp4733
ssI1220505
(dp4734
g2
g3
((lp4735
S'Palestine'
p4736
ag54
ag29
ag27
aS'Arab Youth'
p4737
atp4738
Rp4739
sg10
g11
(S'\x07\xe1\x02\x0e'
p4740
tp4741
Rp4742
ssI1220506
(dp4743
g2
g3
((lp4744
g4736
ag54
ag456
ag457
atp4745
Rp4746
sg10
g11
(S'\x07\xe1\x02\x0e'
p4747
tp4748
Rp4749
ssI1220507
(dp4750
g2
g3
((lp4751
g4736
ag54
ag160
ag1479
ag1328
atp4752
Rp4753
sg10
g11
(S'\x07\xe1\x02\x0e'
p4754
tp4755
Rp4756
ssI1220508
(dp4757
g2
g3
((lp4758
g37
ag4728
ag71
atp4759
Rp4760
sg10
g11
(S'\x07\xe1\x02\x0e'
p4761
tp4762
Rp4763
ssI1220509
(dp4764
g169
g3
((lp4765
S'Jordan'
p4766
ag933
ag934
ag173
atp4767
Rp4768
sg176
g11
(S'\x07\xe1\x02\x0e'
p4769
tp4770
Rp4771
ssI1220510
(dp4772
g2
g3
((lp4773
g456
ag457
ag4728
ag71
atp4774
Rp4775
sg10
g11
(S'\x07\xe1\x02\x0e'
p4776
tp4777
Rp4778
ssI1220511
(dp4779
g2
g3
((lp4780
g4736
ag54
ag1226
ag1088
atp4781
Rp4782
sg10
g11
(S'\x07\xe1\x02\x0e'
p4783
tp4784
Rp4785
ssI1220512
(dp4786
g2
g3
((lp4787
g4736
ag54
ag4737
ag19
ag27
atp4788
Rp4789
sg10
g11
(S'\x07\xe1\x02\x0e'
p4790
tp4791
Rp4792
ssI1220513
(dp4793
g2
g3
((lp4794
g4736
ag54
ag1226
ag1088
atp4795
Rp4796
sg10
g11
(S'\x07\xe1\x02\x0e'
p4797
tp4798
Rp4799
ssI1220514
(dp4800
g2
g3
((lp4801
g4736
ag54
ag37
ag27
ag4737
atp4802
Rp4803
sg10
g11
(S'\x07\xe1\x02\x0e'
p4804
tp4805
Rp4806
ssI1220515
(dp4807
g2
g3
((lp4808
g4736
ag54
ag1226
ag1088
aS'Islamic Finance'
p4809
atp4810
Rp4811
sg10
g11
(S'\x07\xe1\x02\x0e'
p4812
tp4813
Rp4814
ssI1220517
(dp4815
g2
g3
((lp4816
g37
ag54
ag204
ag27
ag4736
ag4737
atp4817
Rp4818
sg10
g11
(S'\x07\xe1\x02\x0e'
p4819
tp4820
Rp4821
ssI1220519
(dp4822
g2
g3
((lp4823
g4736
ag54
ag456
ag457
atp4824
Rp4825
sg10
g11
(S'\x07\xe1\x02\x0e'
p4826
tp4827
Rp4828
ssI1220520
(dp4829
g2
g3
((lp4830
g4736
ag54
ag234
atp4831
Rp4832
sg10
g11
(S'\x07\xe1\x02\x0e'
p4833
tp4834
Rp4835
ssI1220522
(dp4836
g2
g3
((lp4837
g4736
ag54
ag1226
ag1088
ag4809
atp4838
Rp4839
sg10
g11
(S'\x07\xe1\x02\x0e'
p4840
tp4841
Rp4842
ssI1220523
(dp4843
g2
g3
((lp4844
g189
ag19
ag71
atp4845
Rp4846
sg10
g11
(S'\x07\xe1\x02\x0e'
p4847
tp4848
Rp4849
ssI1220531
(dp4850
g169
g3
((lp4851
S'Philippines'
p4852
ag172
ag173
atp4853
Rp4854
sg176
g11
(S'\x07\xe1\x02\x0e'
p4855
tp4856
Rp4857
ssI1220532
(dp4858
g2
g3
((lp4859
g104
ag18
ag152
ag144
atp4860
Rp4861
sg10
g11
(S'\x07\xe1\x02\x0e'
p4862
tp4863
Rp4864
ssI1220533
(dp4865
g2
g3
((lp4866
g4809
ag18
aS'Somalia'
p4867
ag72
ag234
ag1328
atp4868
Rp4869
sg10
g11
(S'\x07\xe1\x02\x0e'
p4870
tp4871
Rp4872
ssI1220534
(dp4873
g2
g3
((lp4874
g37
aS'Israel'
p4875
ag71
ag72
atp4876
Rp4877
sg10
g11
(S'\x07\xe1\x02\x0e'
p4878
tp4879
Rp4880
ssI1220535
(dp4881
g2
g3
((lp4882
g37
ag4875
ag71
ag72
atp4883
Rp4884
sg10
g11
(S'\x07\xe1\x02\x0e'
p4885
tp4886
Rp4887
ssI1220536
(dp4888
g2
g3
((lp4889
g70
ag5
ag71
ag72
atp4890
Rp4891
sg10
g11
(S'\x07\xe1\x02\x0e'
p4892
tp4893
Rp4894
ssI1220537
(dp4895
g2
g3
((lp4896
g70
ag29
ag71
ag72
atp4897
Rp4898
sg10
g11
(S'\x07\xe1\x02\x0e'
p4899
tp4900
Rp4901
ssI1220561
(dp4902
g2
g3
((lp4903
g189
ag29
ag71
ag72
atp4904
Rp4905
sg10
g11
(S'\x07\xe1\x02\x0e'
p4906
tp4907
Rp4908
ss.