(dp0
I1216559
(dp1
S'elements'
p2
c__builtin__
set
p3
((lp4
S'Nicaragua'
p5
aS'Transportation'
p6
aS'Repair Renew Replace'
p7
aS'North_America'
p8
aS'Parent'
p9
atp10
Rp11
sS'updated_at'
p12
cdatetime
datetime
p13
(S"\x07\xe1\x01\x0f\x0b\x168\x00\x95'"
p14
tp15
Rp16
sS'expired_at'
p17
cdatetime
date
p18
(S'\x07\xe1\x02\x0c'
p19
tp20
Rp21
ssI1208371
(dp22
g2
g3
((lp23
S'Kenya'
p24
aS'Africa'
p25
aS'Schooling'
p26
aS'Parent'
p27
aS'Agriculture'
p28
atp29
Rp30
sg12
g13
(S'\x07\xe1\x01\x0f\x0b\x168\x00\x96P'
p31
tp32
Rp33
sg17
g18
(S'\x07\xe1\x02\x0c'
p34
tp35
Rp36
ssI1220282
(dp37
S'elements'
p38
g3
((lp39
S'Youth'
p40
aS'Arts'
p41
aS'South_America'
p42
aS'Colombia'
p43
atp44
Rp45
sS'expired_at'
p46
g18
(S'\x07\xe1\x02\r'
p47
tp48
Rp49
ssI1218677
(dp50
g2
g3
((lp51
S'user_favorite'
p52
aS'Parent'
p53
aS'Food'
p54
ag25
aS'Woman Owned Biz'
p55
aS'Repeat Borrower'
p56
aS'Burkina Faso'
p57
atp58
Rp59
sg12
g13
(S'\x07\xe1\x01\x0f\x0b\x168\x00\x92\xa8'
p60
tp61
Rp62
sg17
g18
(S'\x07\xe1\x02\r'
p63
tp64
Rp65
ssI1216646
(dp66
g2
g3
((lp67
S'Animals'
p68
aS'Parent'
p69
ag25
aS'Mali'
p70
aS'Repeat Borrower'
p71
ag28
atp72
Rp73
sg12
g13
(S'\x07\xe1\x01\x0f\x0b\x168\x00\x92\xe9'
p74
tp75
Rp76
sg17
g18
(S'\x07\xe1\x02\r'
p77
tp78
Rp79
ssI1210506
(dp80
g2
g3
((lp81
S'Unknown'
p82
aS'Repeat Borrower'
p83
ag28
aS'Congo (Dem. Rep.)'
p84
aS'Parent'
p85
atp86
Rp87
sg12
g13
(S'\x07\xe1\x01\x0f\x0b\x168\x00\x95\xe6'
p88
tp89
Rp90
sg17
g18
(S'\x07\xe1\x02\x0c'
p91
tp92
Rp93
ssI1214604
(dp94
g2
g3
((lp95
g52
aS'Parent'
p96
ag54
ag25
ag70
aS'Repeat Borrower'
p97
atp98
Rp99
sg12
g13
(S'\x07\xe1\x01\x0f\x0b\x168\x00\x92\xfe'
p100
tp101
Rp102
sg17
g18
(S'\x07\xe1\x02\r'
p103
tp104
Rp105
ssI1204389
(dp106
g2
g3
((lp107
g54
aS'Pakistan'
p108
aS'Asia'
p109
aS'Parent'
p110
aS'Underfunded Areas'
p111
atp112
Rp113
sg12
g13
(S'\x07\xe1\x01\x0f\x0b\x168\x00\x97\xb9'
p114
tp115
Rp116
sg17
g18
(S'\x07\xe1\x02\x0c'
p117
tp118
Rp119
ssI1218732
(dp120
g2
g3
((lp121
S'volunteer_pick'
p122
aS'volunteer_like'
p123
ag54
aS'South_America'
p124
aS'Peru'
p125
ag111
atp126
Rp127
sg12
g13
(S'\x07\xe1\x01\x0f\x0b\x168\x00\x95R'
p128
tp129
Rp130
sg17
g18
(S'\x07\xe1\x02\x0c'
p131
tp132
Rp133
ssI1204400
(dp134
g2
g3
((lp135
g108
aS'Wholesale'
p136
ag109
aS'Parent'
p137
ag111
atp138
Rp139
sg12
g13
(S'\x07\xe1\x01\x0f\x0b\x168\x00\x97\xce'
p140
tp141
Rp142
sg17
g18
(S'\x07\xe1\x02\x0c'
p143
tp144
Rp145
ssI1219616
(dp146
g2
g3
((lp147
g122
ag124
aS'Elderly'
p148
aS'Trees'
p149
ag125
ag111
ag28
atp150
Rp151
sg12
g13
(S'\x07\xe1\x01\x0f\x0b\x168\x00\xa7 '
p152
tp153
Rp154
sg17
g18
(S'\x07\xe1\x02\x0c'
p155
tp156
Rp157
ssI1218799
(dp158
g2
g3
((lp159
g54
aS'Woman Owned Biz'
p160
aS'Haiti'
p161
ag8
atp162
Rp163
sg12
g13
(S'\x07\xe1\x01\x0f\x0b\x168\x00v\xc4'
p164
tp165
Rp166
sg17
g18
(S'\x07\xe1\x02\x0e'
p167
tp168
Rp169
ssI1214749
(dp170
g38
g3
((lp171
S'Housing'
p172
aS'Indonesia'
p173
aS'Water and Sanitation'
p174
aS'Asia'
p175
atp176
Rp177
sg46
g18
(S'\x07\xe1\x02\x0c'
p178
tp179
Rp180
ssI1219300
(dp181
g38
g3
((lp182
S'Agriculture'
p183
aS'Tajikistan'
p184
ag175
atp185
Rp186
sg46
g18
(S'\x07\xe1\x02\r'
p187
tp188
Rp189
ssI1203601
(dp190
g2
g3
((lp191
S'Parent'
p192
ag25
aS'Schooling'
p193
aS'Vegan'
p194
aS'Nigeria'
p195
aS'Education'
p196
aS'Repeat Borrower'
p197
aS'Rural Exclusion'
p198
atp199
Rp200
sg12
g13
(S'\x07\xe1\x01\x0f\x0b\x168\x00\x97\x8f'
p201
tp202
Rp203
sg17
g18
(S'\x07\xe1\x02\x0c'
p204
tp205
Rp206
ssI1202921
(dp207
g2
g3
((lp208
S'Animals'
p209
ag25
aS'Uganda'
p210
aS'Repeat Borrower'
p211
ag28
ag198
atp212
Rp213
sg12
g13
(S'\x07\xe1\x01\x0f\x0b\x168\x00\x98\xa3'
p214
tp215
Rp216
sg17
g18
(S'\x07\xe1\x02\x0c'
p217
tp218
Rp219
ssI1202557
(dp220
g2
g3
((lp221
S'Elderly'
p222
aS'Vulnerable Groups'
p223
ag52
aS'Housing'
p224
ag109
aS'Cambodia'
p225
aS'Repair Renew Replace'
p226
ag198
atp227
Rp228
sg12
g13
(S'\x07\xe1\x01\x0f\x0b\x168\x00\x99o'
p229
tp230
Rp231
sg17
g18
(S'\x07\xe1\x02\x0c'
p232
tp233
Rp234
ssI1204609
(dp235
S'elements'
p236
g3
((lp237
S'Agriculture'
p238
aS'Tajikistan'
p239
aS'Asia'
p240
atp241
Rp242
sS'expired_at'
p243
g18
(S'\x07\xe1\x02\x0e'
p244
tp245
Rp246
ssI1216905
(dp247
g2
g3
((lp248
g82
aS'Animals'
p249
ag84
ag28
atp250
Rp251
sg12
g13
(S'\x07\xe1\x01\x0f\x0b\x168\x00w\x01'
p252
tp253
Rp254
sg17
g18
(S'\x07\xe1\x02\x0e'
p255
tp256
Rp257
ssI1204631
(dp258
g2
g3
((lp259
g54
aS'Philippines'
p260
aS'Repair Renew Replace'
p261
ag52
ag109
atp262
Rp263
sg12
g13
(S'\x07\xe1\x01\x0f\x0b\x168\x00\x98$'
p264
tp265
Rp266
sg17
g18
(S'\x07\xe1\x02\x0c'
p267
tp268
Rp269
ssI1218986
(dp270
g2
g3
((lp271
S'Animals'
p272
ag52
aS'Parent'
p273
ag25
aS'Schooling'
p274
ag24
ag28
atp275
Rp276
sg12
g13
(S'\x07\xe1\x01\x0f\x0b\x168\x00\x9f\xbd'
p277
tp278
Rp279
sg17
g18
(S'\x07\xe1\x02\x0c'
p280
tp281
Rp282
ssI1218996
(dp283
g2
g3
((lp284
g54
ag122
aS'Start-Up'
p285
aS'Tajikistan'
p286
ag109
atp287
Rp288
sg12
g13
(S'\x07\xe1\x01\x0f\x0b\x168\x00\xa6\xb8'
p289
tp290
Rp291
sg17
g18
(S'\x07\xe1\x02\x0c'
p292
tp293
Rp294
ssI1220492
(dp295
g2
g3
((lp296
S'Paraguay'
p297
ag54
aS'Repeat Borrower'
p298
ag124
atp299
Rp300
sg12
g13
(S'\x07\xe1\x01\x0f\x0b\x168\x00|<'
p301
tp302
Rp303
sg17
g18
(S'\x07\xe1\x02\x0e'
p304
tp305
Rp306
ssI1212870
(dp307
g2
g3
((lp308
S'Animals'
p309
ag52
ag25
ag70
aS'Repeat Borrower'
p310
ag28
atp311
Rp312
sg12
g13
(S'\x07\xe1\x01\x0f\x0b\x168\x00\x94}'
p313
tp314
Rp315
sg17
g18
(S'\x07\xe1\x02\x0c'
p316
tp317
Rp318
ssI1219017
(dp319
g2
g3
((lp320
g122
ag286
aS'Repeat Borrower'
p321
ag28
ag109
atp322
Rp323
sg12
g13
(S'\x07\xe1\x01\x0f\x0b\x168\x00\xa6&'
p324
tp325
Rp326
sg17
g18
(S'\x07\xe1\x02\x0c'
p327
tp328
Rp329
ssI1204724
(dp330
g2
g3
((lp331
g24
aS'Repeat Borrower'
p332
ag25
aS'Clothing'
p333
aS'Woman Owned Biz'
p334
atp335
Rp336
sg12
g13
(S'\x07\xe1\x01\x0f\x0b\x168\x00\x99U'
p337
tp338
Rp339
sg17
g18
(S'\x07\xe1\x02\x0c'
p340
tp341
Rp342
ssI1219063
(dp343
g2
g3
((lp344
g122
ag52
ag109
aS'Services'
p345
ag286
aS'Fabrics'
p346
atp347
Rp348
sg12
g13
(S'\x07\xe1\x01\x0f\x0b\x168\x00\xa5\xd9'
p349
tp350
Rp351
sg17
g18
(S'\x07\xe1\x02\x0c'
p352
tp353
Rp354
ssI1219067
(dp355
g2
g3
((lp356
g52
aS'Parent'
p357
ag25
aS'Construction'
p358
aS'Rwanda'
p359
aS'Repeat Borrower'
p360
atp361
Rp362
sg12
g13
(S'\x07\xe1\x01\x0f\x0b\x168\x00\x7fd'
p363
tp364
Rp365
sg17
g18
(S'\x07\xe1\x02\r'
p366
tp367
Rp368
ssI1212930
(dp369
g2
g3
((lp370
g52
ag54
ag25
aS'Elderly'
p371
ag70
aS'Repeat Borrower'
p372
atp373
Rp374
sg12
g13
(S'\x07\xe1\x01\x0f\x0b\x168\x00\x97e'
p375
tp376
Rp377
sg17
g18
(S'\x07\xe1\x02\x0c'
p378
tp379
Rp380
ssI1204769
(dp381
S'elements'
p382
g3
((lp383
S'Vulnerable Groups'
p384
aS'Cambodia'
p385
aS'Eco-friendly'
p386
aS'Asia'
p387
aS'Services'
p388
aS'Rural Exclusion'
p389
atp390
Rp391
sS'expired_at'
p392
g18
(S'\x07\xe1\x02\x0c'
p393
tp394
Rp395
ssI1212963
(dp396
g2
g3
((lp397
g54
ag25
ag52
aS'Parent'
p398
ag70
atp399
Rp400
sg12
g13
(S'\x07\xe1\x01\x0f\x0b\x168\x00\x94\x92'
p401
tp402
Rp403
sg17
g18
(S'\x07\xe1\x02\x0c'
p404
tp405
Rp406
ssI1219108
(dp407
S'elements'
p408
g3
((lp409
S'Tajikistan'
p410
aS'Agriculture'
p411
aS'Asia'
p412
atp413
Rp414
sS'expired_at'
p415
g18
(S'\x07\xe1\x02\r'
p416
tp417
Rp418
ssI1212983
(dp419
g2
g3
((lp420
S'Animals'
p421
ag25
aS'Schooling'
p422
ag70
aS'Repeat Borrower'
p423
ag28
atp424
Rp425
sg12
g13
(S'\x07\xe1\x01\x0f\x0b\x168\x00\x98N'
p426
tp427
Rp428
sg17
g18
(S'\x07\xe1\x02\x0c'
p429
tp430
Rp431
ssI1210957
(dp432
g2
g3
((lp433
g54
ag82
aS'Biz Durable Asset'
p434
aS'Repair Renew Replace'
p435
ag84
atp436
Rp437
sg12
g13
(S'\x07\xe1\x01\x0f\x0b\x168\x00\x97\xa5'
p438
tp439
Rp440
sg17
g18
(S'\x07\xe1\x02\x0c'
p441
tp442
Rp443
ssI1204815
(dp444
g2
g3
((lp445
g54
aS'Togo'
p446
ag25
ag52
aS'Woman Owned Biz'
p447
atp448
Rp449
sg12
g13
(S'\x07\xe1\x01\x0f\x0b\x168\x00\x9a\xa7'
p450
tp451
Rp452
sg17
g18
(S'\x07\xe1\x02\x0c'
p453
tp454
Rp455
ssI1202771
(dp456
g2
g3
((lp457
g108
ag6
ag109
aS'Elderly'
p458
ag111
atp459
Rp460
sg12
g13
(S'\x07\xe1\x01\x0f\x0b\x168\x00\x98\xb8'
p461
tp462
Rp463
sg17
g18
(S'\x07\xe1\x02\x0c'
p464
tp465
Rp466
ssI1220366
(dp467
g2
g3
((lp468
g108
ag198
aS'Repair Renew Replace'
p469
ag109
ag6
atp470
Rp471
sg12
g13
(S'\x07\xe1\x01\x0f\x0b\x168\x00\x82\xcf'
p472
tp473
Rp474
sg17
g18
(S'\x07\xe1\x02\r'
p475
tp476
Rp477
ssI1206872
(dp478
g38
g3
((lp479
S'Kenya'
p480
aS'Green'
p481
aS'Africa'
p482
ag183
aS'Rural Exclusion'
p483
atp484
Rp485
sg46
g18
(S'\x07\xe1\x02\x0c'
p486
tp487
Rp488
ssI1204860
(dp489
g2
g3
((lp490
S'Europe'
p491
aS'Parent'
p492
aS'Biz Durable Asset'
p493
aS'Youth'
p494
aS'Armenia'
p495
ag345
aS'Repeat Borrower'
p496
aS'Repair Renew Replace'
p497
atp498
Rp499
sg12
g13
(S'\x07\xe1\x01\x0f\x0b\x168\x00\x98\x0e'
p500
tp501
Rp502
sg17
g18
(S'\x07\xe1\x02\x0c'
p503
tp504
Rp505
ssI1208964
(dp506
g2
g3
((lp507
g54
ag25
aS'Vegan'
p508
ag210
aS'Woman Owned Biz'
p509
ag198
atp510
Rp511
sg12
g13
(S'\x07\xe1\x01\x0f\x0b\x168\x00\x96\x90'
p512
tp513
Rp514
sg17
g18
(S'\x07\xe1\x02\x0c'
p515
tp516
Rp517
ssI1208966
(dp518
S'elements'
p519
g3
((lp520
S'Food'
p521
aS'Togo'
p522
aS'Repeat Borrower'
p523
aS'Africa'
p524
atp525
Rp526
sS'expired_at'
p527
g18
(S'\x07\xe1\x02\x0c'
p528
tp529
Rp530
ssI1219219
(dp531
g2
g3
((lp532
g286
ag224
aS'Repair Renew Replace'
p533
ag109
atp534
Rp535
sg12
g13
(S'\x07\xe1\x01\x0f\x0b\x168\x00\x8e\xfa'
p536
tp537
Rp538
sg17
g18
(S'\x07\xe1\x02\r'
p539
tp540
Rp541
ssI1202850
(dp542
g2
g3
((lp543
S'Parent'
p544
ag24
ag54
ag25
aS'Woman Owned Biz'
p545
aS'Single Parent'
p546
atp547
Rp548
sg12
g13
(S'\x07\xe1\x01\x0f\x0b\x168\x00\x99;'
p549
tp550
Rp551
sg17
g18
(S'\x07\xe1\x02\x0c'
p552
tp553
Rp554
ssI1219248
(dp555
g2
g3
((lp556
g52
aS'Technology'
p557
aS'Biz Durable Asset'
p558
ag109
ag345
ag286
aS'Fabrics'
p559
atp560
Rp561
sg12
g13
(S'\x07\xe1\x01\x0f\x0b\x168\x00\x8e\xb8'
p562
tp563
Rp564
sg17
g18
(S'\x07\xe1\x02\r'
p565
tp566
Rp567
ssI1204921
(dp568
g519
g3
((lp569
S'Youth'
p570
aS'Repeat Borrower'
p571
aS'Education'
p572
aS'Lebanon'
p573
aS'Asia'
p574
atp575
Rp576
sg527
g18
(S'\x07\xe1\x02\x0c'
p577
tp578
Rp579
ssI1219271
(dp580
g2
g3
((lp581
g286
ag224
aS'Repair Renew Replace'
p582
ag109
atp583
Rp584
sg12
g13
(S'\x07\xe1\x01\x0f\x0b\x168\x00\x8ex'
p585
tp586
Rp587
sg17
g18
(S'\x07\xe1\x02\r'
p588
tp589
Rp590
ssI1204936
(dp591
g408
g3
((lp592
S'Kenya'
p593
aS'Africa'
p594
ag411
aS'Rural Exclusion'
p595
atp596
Rp597
sg415
g18
(S'\x07\xe1\x02\x0c'
p598
tp599
Rp600
ssI1219277
(dp601
g382
g3
((lp602
g388
aS'Kenya'
p603
aS'Africa'
p604
aS'Eco-friendly'
p605
atp606
Rp607
sg392
g18
(S'\x07\xe1\x02\r'
p608
tp609
Rp610
ssI1219278
(dp611
g2
g3
((lp612
g223
aS'Parent'
p613
ag54
aS'Biz Durable Asset'
p614
ag109
ag225
aS'Woman Owned Biz'
p615
ag198
atp616
Rp617
sg12
g13
(S'\x07\xe1\x01\x0f\x0b\x168\x00\x90:'
p618
tp619
Rp620
sg17
g18
(S'\x07\xe1\x02\r'
p621
tp622
Rp623
ssI1219281
(dp624
g2
g3
((lp625
g223
aS'Parent'
p626
ag54
ag109
ag225
ag198
atp627
Rp628
sg12
g13
(S'\x07\xe1\x01\x0f\x0b\x168\x00\x8f\xd0'
p629
tp630
Rp631
sg17
g18
(S'\x07\xe1\x02\r'
p632
tp633
Rp634
ssI1219282
(dp635
g2
g3
((lp636
g286
aS'Higher Education'
p637
ag196
aS'Schooling'
p638
ag109
atp639
Rp640
sg12
g13
(S'\x07\xe1\x01\x0f\x0b\x168\x00\x8f\xe5'
p641
tp642
Rp643
sg17
g18
(S'\x07\xe1\x02\r'
p644
tp645
Rp646
ssI1204964
(dp647
g2
g3
((lp648
g52
aS'Parent'
p649
aS'Lebanon'
p650
aS'Schooling'
p651
ag109
ag494
ag196
aS'Technology'
p652
atp653
Rp654
sg12
g13
(S'\x07\xe1\x01\x0f\x0b\x168\x00\x97O'
p655
tp656
Rp657
sg17
g18
(S'\x07\xe1\x02\x0c'
p658
tp659
Rp660
ssI1204969
(dp661
g408
g3
((lp662
S'Education'
p663
aS'Lebanon'
p664
aS'Vulnerable Groups'
p665
ag412
atp666
Rp667
sg415
g18
(S'\x07\xe1\x02\x0c'
p668
tp669
Rp670
ssI1219308
(dp671
g2
g3
((lp672
g637
ag52
aS'Schooling'
p673
ag109
ag196
ag286
atp674
Rp675
sg12
g13
(S'\x07\xe1\x01\x0f\x0b\x168\x00\x80\xa4'
p676
tp677
Rp678
sg17
g18
(S'\x07\xe1\x02\r'
p679
tp680
Rp681
ssI1209085
(dp682
g2
g3
((lp683
S'Parent'
p684
ag25
aS'Vegan'
p685
ag210
ag28
ag198
atp686
Rp687
sg12
g13
(S'\x07\xe1\x01\x0f\x0b\x168\x00\x96\xa5'
p688
tp689
Rp690
sg17
g18
(S'\x07\xe1\x02\x0c'
p691
tp692
Rp693
ssI1219333
(dp694
S'elements'
p695
g3
((lp696
S'Tajikistan'
p697
aS'Agriculture'
p698
aS'Asia'
p699
aS'Woman Owned Biz'
p700
atp701
Rp702
sS'expired_at'
p703
g18
(S'\x07\xe1\x02\r'
p704
tp705
Rp706
ssI1219338
(dp707
g2
g3
((lp708
S'Parent'
p709
ag25
aS'Schooling'
p710
aS'Vegan'
p711
ag195
ag196
aS'Repeat Borrower'
p712
ag198
atp713
Rp714
sg12
g13
(S'\x07\xe1\x01\x0f\x0b\x168\x00\xa1\x8b'
p715
tp716
Rp717
sg17
g18
(S'\x07\xe1\x02\x0c'
p718
tp719
Rp720
ssI1219339
(dp721
g2
g3
((lp722
S'Parent'
p723
ag25
aS'Schooling'
p724
aS'Vegan'
p725
ag195
ag196
aS'Repeat Borrower'
p726
ag198
atp727
Rp728
sg12
g13
(S'\x07\xe1\x01\x0f\x0b\x168\x00\x9f\xd7'
p729
tp730
Rp731
sg17
g18
(S'\x07\xe1\x02\x0c'
p732
tp733
Rp734
ssI1219357
(dp735
g2
g3
((lp736
S'Supporting Family'
p737
aS'Parent'
p738
aS'Health and Sanitation'
p739
ag109
aS'Health'
p740
aS'Repeat Borrower'
p741
ag286
atp742
Rp743
sg12
g13
(S'\x07\xe1\x01\x0f\x0b\x168\x00~\xed'
p744
tp745
Rp746
sg17
g18
(S'\x07\xe1\x02\r'
p747
tp748
Rp749
ssI1219365
(dp750
g2
g3
((lp751
S'Animals'
p752
aS'Parent'
p753
ag25
aS'Woman Owned Biz'
p754
ag24
aS'Repeat Borrower'
p755
ag28
ag198
atp756
Rp757
sg12
g13
(S'\x07\xe1\x01\x0f\x0b\x168\x00\x8d('
p758
tp759
Rp760
sg17
g18
(S'\x07\xe1\x02\r'
p761
tp762
Rp763
ssI1209129
(dp764
g2
g3
((lp765
S'Animals'
p766
ag52
ag25
ag70
aS'Repeat Borrower'
p767
ag28
atp768
Rp769
sg12
g13
(S'\x07\xe1\x01\x0f\x0b\x168\x00\x99\x89'
p770
tp771
Rp772
sg17
g18
(S'\x07\xe1\x02\x0c'
p773
tp774
Rp775
ssI1219377
(dp776
g695
g3
((lp777
S'Kenya'
p778
aS'Woman Owned Biz'
p779
aS'Africa'
p780
ag698
aS'Rural Exclusion'
p781
atp782
Rp783
sg703
g18
(S'\x07\xe1\x02\r'
p784
tp785
Rp786
ssI1211188
(dp787
g2
g3
((lp788
g54
aS'Woman Owned Biz'
p789
aS'Repeat Borrower'
p790
ag25
ag57
atp791
Rp792
sg12
g13
(S'\x07\xe1\x01\x0f\x0b\x168\x00\x95|'
p793
tp794
Rp795
sg17
g18
(S'\x07\xe1\x02\x0c'
p796
tp797
Rp798
ssI1219381
(dp799
g2
g3
((lp800
S'Parent'
p801
aS'First Loan'
p802
ag286
ag109
aS'Vegan'
p803
ag28
atp804
Rp805
sg12
g13
(S'\x07\xe1\x01\x0f\x0b\x168\x00\xa1?'
p806
tp807
Rp808
sg17
g18
(S'\x07\xe1\x02\x0c'
p809
tp810
Rp811
ssI1219391
(dp812
g2
g3
((lp813
g52
ag25
aS'Mobile Technology'
p814
aS'Mozambique'
p815
ag345
aS'Woman Owned Biz'
p816
aS'Technology'
p817
atp818
Rp819
sg12
g13
(S'\x07\xe1\x01\x0f\x0b\x168\x00\xa7K'
p820
tp821
Rp822
sg17
g18
(S'\x07\xe1\x02\x0c'
p823
tp824
Rp825
ssI1216092
(dp826
g2
g3
((lp827
g52
ag54
ag25
aS'Schooling'
p828
aS'Elderly'
p829
ag359
ag111
aS'Woman Owned Biz'
p830
atp831
Rp832
sg12
g13
(S'\x07\xe1\x01\x0f\x0b\x168\x00\x7fF'
p833
tp834
Rp835
sg17
g18
(S'\x07\xe1\x02\r'
p836
tp837
Rp838
ssI1219393
(dp839
S'elements'
p840
g3
((lp841
S'Parent'
p842
aS'Housing'
p843
aS'Africa'
p844
aS'Uganda'
p845
aS'Repeat Borrower'
p846
aS'Repair Renew Replace'
p847
aS'Rural Exclusion'
p848
atp849
Rp850
sS'added_at'
p851
g13
(S'\x07\xe1\x01\x0f\x0b\x11+\x0c\xe1\t'
p852
tp853
Rp854
sS'expired_at'
p855
g18
(S'\x07\xe1\x02\x0c'
p856
tp857
Rp858
ssI1219394
(dp859
g2
g3
((lp860
S'Supporting Family'
p861
aS'Parent'
p862
aS'Biz Durable Asset'
p863
ag25
ag814
ag815
ag345
aS'Technology'
p864
atp865
Rp866
sg12
g13
(S'\x07\xe1\x01\x0f\x0b\x168\x00\xa6\xfe'
p867
tp868
Rp869
sg17
g18
(S'\x07\xe1\x02\x0c'
p870
tp871
Rp872
ssI1205080
(dp873
g2
g3
((lp874
S'Animals'
p875
ag25
aS'Woman Owned Biz'
p876
ag28
ag57
ag198
atp877
Rp878
sg12
g13
(S'\x07\xe1\x01\x0f\x0b\x168\x00\x99\xf0'
p879
tp880
Rp881
sg17
g18
(S'\x07\xe1\x02\x0c'
p882
tp883
Rp884
ssI1213282
(dp885
g2
g3
((lp886
g52
aS'Parent'
p887
aS'Repair Renew Replace'
p888
aS'Biz Durable Asset'
p889
ag345
ag5
ag8
atp890
Rp891
sg12
g13
(S'\x07\xe1\x01\x0f\x0b\x168\x00\x95\xd1'
p892
tp893
Rp894
sg17
g18
(S'\x07\xe1\x02\x0c'
p895
tp896
Rp897
ssI1219436
(dp898
g2
g3
((lp899
g24
aS'Woman Owned Biz'
p900
ag25
ag28
ag198
atp901
Rp902
sg12
g13
(S'\x07\xe1\x01\x0f\x0b\x168\x00\xa6\xe3'
p903
tp904
Rp905
sg17
g18
(S'\x07\xe1\x02\x0c'
p906
tp907
Rp908
ssI1219437
(dp909
g2
g3
((lp910
S'Supporting Family'
p911
ag637
ag52
ag650
aS'Schooling'
p912
ag109
ag196
atp913
Rp914
sg12
g13
(S'\x07\xe1\x01\x0f\x0b\x168\x00\xa76'
p915
tp916
Rp917
sg17
g18
(S'\x07\xe1\x02\x0c'
p918
tp919
Rp920
ssI1211251
(dp921
g2
g3
((lp922
g52
ag25
ag446
aS'Eco-friendly'
p923
aS'Repeat Borrower'
p924
ag333
atp925
Rp926
sg12
g13
(S'\x07\xe1\x01\x0f\x0b\x168\x00\x94\xe8'
p927
tp928
Rp929
sg17
g18
(S'\x07\xe1\x02\x0c'
p930
tp931
Rp932
ssI1206069
(dp933
g2
g3
((lp934
g108
ag198
aS'Repair Renew Replace'
p935
ag109
ag6
atp936
Rp937
sg12
g13
(S'\x07\xe1\x01\x0f\x0b\x168\x00\x92\x92'
p938
tp939
Rp940
sg17
g18
(S'\x07\xe1\x02\r'
p941
tp942
Rp943
ssI1219447
(dp944
g695
g3
((lp945
S'Woman Owned Biz'
p946
aS'Retail'
p947
aS'Lebanon'
p948
aS'Vulnerable Groups'
p949
ag699
atp950
Rp951
sg703
g18
(S'\x07\xe1\x02\x0c'
p952
tp953
Rp954
ssI1219449
(dp955
g2
g3
((lp956
g24
aS'Woman Owned Biz'
p957
ag25
ag28
ag198
atp958
Rp959
sg12
g13
(S'\x07\xe1\x01\x0f\x0b\x168\x00\xa6\x89'
p960
tp961
Rp962
sg17
g18
(S'\x07\xe1\x02\x0c'
p963
tp964
Rp965
ssI1219452
(dp966
g695
g3
((lp967
S'Services'
p968
aS'Woman Owned Biz'
p969
ag948
ag949
ag699
atp970
Rp971
sg703
g18
(S'\x07\xe1\x02\x0c'
p972
tp973
Rp974
ssI1219459
(dp975
g2
g3
((lp976
S'Retail'
p977
ag650
ag109
aS'Parent'
p978
ag223
atp979
Rp980
sg12
g13
(S'\x07\xe1\x01\x0f\x0b\x168\x00\xa5\xf3'
p981
tp982
Rp983
sg17
g18
(S'\x07\xe1\x02\x0c'
p984
tp985
Rp986
ssI1219466
(dp987
g2
g3
((lp988
S'Animals'
p989
aS'Biz Durable Asset'
p990
ag25
ag24
ag28
ag198
atp991
Rp992
sg12
g13
(S'\x07\xe1\x01\x0f\x0b\x168\x00\xa5\xa7'
p993
tp994
Rp995
sg17
g18
(S'\x07\xe1\x02\x0c'
p996
tp997
Rp998
ssI1219467
(dp999
g2
g3
((lp1000
S'Innovative Loans'
p1001
aS'Zambia'
p1002
ag25
aS'Schooling'
p1003
ag814
aS'Female Education'
p1004
ag345
aS'Woman Owned Biz'
p1005
atp1006
Rp1007
sg12
g13
(S'\x07\xe1\x01\x0f\x0b\x168\x00\xa5\x8d'
p1008
tp1009
Rp1010
sg17
g18
(S'\x07\xe1\x02\x0c'
p1011
tp1012
Rp1013
ssI1219469
(dp1014
g695
g3
((lp1015
S'Turkey'
p1016
aS'Woman Owned Biz'
p1017
ag947
ag699
aS'Underfunded Areas'
p1018
atp1019
Rp1020
sg703
g18
(S'\x07\xe1\x02\x0c'
p1021
tp1022
Rp1023
ssI1209238
(dp1024
g2
g3
((lp1025
g52
aS'Parent'
p1026
ag25
aS'Zimbabwe'
p1027
aS'Woman Owned Biz'
p1028
ag977
atp1029
Rp1030
sg12
g13
(S'\x07\xe1\x01\x0f\x0b\x168\x00\x96\xbb'
p1031
tp1032
Rp1033
sg17
g18
(S'\x07\xe1\x02\x0c'
p1034
tp1035
Rp1036
ssI1219479
(dp1037
g2
g3
((lp1038
S'Supporting Family'
p1039
ag1001
ag1002
ag25
ag814
ag345
aS'Woman Owned Biz'
p1040
aS'Technology'
p1041
atp1042
Rp1043
sg12
g13
(S'\x07\xe1\x01\x0f\x0b\x168\x00\xa5t'
p1044
tp1045
Rp1046
sg17
g18
(S'\x07\xe1\x02\x0c'
p1047
tp1048
Rp1049
ssI1219484
(dp1050
g695
g3
((lp1051
S'Cameroon'
p1052
ag947
ag780
ag949
aS'Woman Owned Biz'
p1053
atp1054
Rp1055
sg703
g18
(S'\x07\xe1\x02\x0c'
p1056
tp1057
Rp1058
ssI1219485
(dp1059
g2
g3
((lp1060
S'Ghana'
p1061
ag52
aS'Parent'
p1062
ag25
aS'Schooling'
p1063
aS'Woman Owned Biz'
p1064
ag977
atp1065
Rp1066
sg12
g13
(S'\x07\xe1\x01\x0f\x0b\x168\x00\xa5Z'
p1067
tp1068
Rp1069
sg17
g18
(S'\x07\xe1\x02\x0c'
p1070
tp1071
Rp1072
ssI1219486
(dp1073
g695
g3
((lp1074
S'Woman Owned Biz'
p1075
ag947
ag780
aS'Burkina Faso'
p1076
atp1077
Rp1078
sg703
g18
(S'\x07\xe1\x02\x0c'
p1079
tp1080
Rp1081
ssI1219487
(dp1082
g2
g3
((lp1083
S'Supporting Family'
p1084
ag6
aS'First Loan'
p1085
ag25
ag210
aS'Repair Renew Replace'
p1086
atp1087
Rp1088
sg12
g13
(S'\x07\xe1\x01\x0f\x0b\x168\x00\xa5A'
p1089
tp1090
Rp1091
sg17
g18
(S'\x07\xe1\x02\x0c'
p1092
tp1093
Rp1094
ssI1219488
(dp1095
g2
g3
((lp1096
g52
aS'Parent'
p1097
ag1001
ag1002
aS'Biz Durable Asset'
p1098
ag25
ag814
ag345
aS'Woman Owned Biz'
p1099
aS'Technology'
p1100
atp1101
Rp1102
sg12
g13
(S'\x07\xe1\x01\x0f\x0b\x168\x00\xa4\xa5'
p1103
tp1104
Rp1105
sg17
g18
(S'\x07\xe1\x02\x0c'
p1106
tp1107
Rp1108
ssI1219490
(dp1109
g2
g3
((lp1110
S'Parent'
p1111
ag25
aS'Schooling'
p1112
aS'Vegan'
p1113
ag195
ag196
aS'Repeat Borrower'
p1114
ag198
atp1115
Rp1116
sg12
g13
(S'\x07\xe1\x01\x0f\x0b\x168\x00\xa4r'
p1117
tp1118
Rp1119
sg17
g18
(S'\x07\xe1\x02\x0c'
p1120
tp1121
Rp1122
ssI1219491
(dp1123
g2
g3
((lp1124
S'Parent'
p1125
ag25
aS'Schooling'
p1126
aS'Vegan'
p1127
ag195
ag196
ag198
atp1128
Rp1129
sg12
g13
(S'\x07\xe1\x01\x0f\x0b\x168\x00\xa4\x8c'
p1130
tp1131
Rp1132
sg17
g18
(S'\x07\xe1\x02\x0c'
p1133
tp1134
Rp1135
ssI1219492
(dp1136
g2
g3
((lp1137
S'Parent'
p1138
ag25
aS'Schooling'
p1139
aS'Vegan'
p1140
ag195
ag196
ag198
atp1141
Rp1142
sg12
g13
(S'\x07\xe1\x01\x0f\x0b\x168\x00\xa4\n'
p1143
tp1144
Rp1145
sg17
g18
(S'\x07\xe1\x02\x0c'
p1146
tp1147
Rp1148
ssI1219494
(dp1149
g2
g3
((lp1150
S'Parent'
p1151
ag25
aS'Schooling'
p1152
aS'Vegan'
p1153
ag195
ag196
ag198
atp1154
Rp1155
sg12
g13
(S'\x07\xe1\x01\x0f\x0b\x168\x00\xa4%'
p1156
tp1157
Rp1158
sg17
g18
(S'\x07\xe1\x02\x0c'
p1159
tp1160
Rp1161
ssI1219497
(dp1162
g382
g3
((lp1163
g604
aS'Start-Up'
p1164
aS'Clothing'
p1165
aS'Malawi'
p1166
aS'Eco-friendly'
p1167
atp1168
Rp1169
sg392
g18
(S'\x07\xe1\x02\x0c'
p1170
tp1171
Rp1172
ssI1219506
(dp1173
g2
g3
((lp1174
g52
aS'Parent'
p1175
ag54
ag25
aS'Woman Owned Biz'
p1176
aS'Cameroon'
p1177
ag223
atp1178
Rp1179
sg12
g13
(S'\x07\xe1\x01\x0f\x0b\x168\x00\x98\xe2'
p1180
tp1181
Rp1182
sg17
g18
(S'\x07\xe1\x02\x0c'
p1183
tp1184
Rp1185
ssI1219509
(dp1186
g2
g3
((lp1187
S'Animals'
p1188
ag52
aS'Parent'
p1189
ag25
ag28
ag57
ag198
atp1190
Rp1191
sg12
g13
(S'\x07\xe1\x01\x0f\x0b\x168\x00\x98\xf8'
p1192
tp1193
Rp1194
sg17
g18
(S'\x07\xe1\x02\x0c'
p1195
tp1196
Rp1197
ssI1219511
(dp1198
g2
g3
((lp1199
S'Widowed'
p1200
ag52
aS'Parent'
p1201
ag25
aS'Woman Owned Biz'
p1202
ag977
ag1177
ag223
atp1203
Rp1204
sg12
g13
(S'\x07\xe1\x01\x0f\x0b\x168\x00\x98y'
p1205
tp1206
Rp1207
sg17
g18
(S'\x07\xe1\x02\x0c'
p1208
tp1209
Rp1210
ssI1219512
(dp1211
g2
g3
((lp1212
g28
aS'Kyrgyzstan'
p1213
aS'Animals'
p1214
ag109
atp1215
Rp1216
sg12
g13
(S'\x07\xe1\x01\x0f\x0b\x168\x00~\xd0'
p1217
tp1218
Rp1219
sg17
g18
(S'\x07\xe1\x02\r'
p1220
tp1221
Rp1222
ssI1219515
(dp1223
g695
g3
((lp1224
S'Woman Owned Biz'
p1225
aS'Kyrgyzstan'
p1226
ag947
ag699
atp1227
Rp1228
sg703
g18
(S'\x07\xe1\x02\r'
p1229
tp1230
Rp1231
ssI1219518
(dp1232
g2
g3
((lp1233
g52
aS'Health and Sanitation'
p1234
ag650
ag109
ag740
ag223
atp1235
Rp1236
sg12
g13
(S'\x07\xe1\x01\x0f\x0b\x168\x00\xa3\xf0'
p1237
tp1238
Rp1239
sg17
g18
(S'\x07\xe1\x02\x0c'
p1240
tp1241
Rp1242
ssI1219744
(dp1243
g2
g3
((lp1244
S'Parent'
p1245
ag25
aS'Vegan'
p1246
ag210
ag28
ag198
atp1247
Rp1248
sg12
g13
(S'\x07\xe1\x01\x0f\x0b\x168\x00\x9b\xf5'
p1249
tp1250
Rp1251
sg17
g18
(S'\x07\xe1\x02\x0c'
p1252
tp1253
Rp1254
ssI1219528
(dp1255
g2
g3
((lp1256
g1061
ag25
ag333
aS'Woman Owned Biz'
p1257
atp1258
Rp1259
sg12
g13
(S'\x07\xe1\x01\x0f\x0b\x168\x00\x9d\xf3'
p1260
tp1261
Rp1262
sg17
g18
(S'\x07\xe1\x02\x0c'
p1263
tp1264
Rp1265
ssI1219529
(dp1266
g2
g3
((lp1267
g1061
ag25
ag333
aS'Schooling'
p1268
aS'Woman Owned Biz'
p1269
atp1270
Rp1271
sg12
g13
(S'\x07\xe1\x01\x0f\x0b\x168\x00\xa3\x89'
p1272
tp1273
Rp1274
sg17
g18
(S'\x07\xe1\x02\x0c'
p1275
tp1276
Rp1277
ssI1219558
(dp1278
g408
g3
((lp1279
S'IPA Study'
p1280
aS'Food'
p1281
aS'Flexible Credit Study'
p1282
aS'South_America'
p1283
aS'Innovative Loans'
p1284
aS'Colombia'
p1285
atp1286
Rp1287
sg415
g18
(S'\x07\xe1\x02\r'
p1288
tp1289
Rp1290
ssI1219562
(dp1291
g2
g3
((lp1292
g122
ag123
ag52
aS'El Salvador'
p1293
aS'Job Creator'
p1294
ag111
aS'Repeat Borrower'
p1295
ag28
ag8
ag223
atp1296
Rp1297
sg12
g13
(S'\x07\xe1\x01\x0f\x0b\x168\x00\x8e\xe4'
p1298
tp1299
Rp1300
sg17
g18
(S'\x07\xe1\x02\r'
p1301
tp1302
Rp1303
ssI1209855
(dp1304
g2
g3
((lp1305
g223
aS'Parent'
p1306
ag54
ag25
aS'Elderly'
p1307
ag1177
atp1308
Rp1309
sg12
g13
(S'\x07\xe1\x01\x0f\x0b\x168\x00\x96\xfa'
p1310
tp1311
Rp1312
sg17
g18
(S'\x07\xe1\x02\x0c'
p1313
tp1314
Rp1315
ssI1219580
(dp1316
g2
g3
((lp1317
g223
aS'Parent'
p1318
ag1293
aS'Woman Owned Biz'
p1319
ag977
aS'Repair Renew Replace'
p1320
ag8
atp1321
Rp1322
sg12
g13
(S'\x07\xe1\x01\x0f\x0b\x168\x00\xa5\xc0'
p1323
tp1324
Rp1325
sg17
g18
(S'\x07\xe1\x02\x0c'
p1326
tp1327
Rp1328
ssI1219584
(dp1329
g2
g3
((lp1330
g52
aS'Parent'
p1331
ag124
aS'Woman Owned Biz'
p1332
aS'Repeat Borrower'
p1333
aS'Bolivia'
p1334
ag333
atp1335
Rp1336
sg12
g13
(S'\x07\xe1\x01\x0f\x0b\x168\x00\xa5&'
p1337
tp1338
Rp1339
sg17
g18
(S'\x07\xe1\x02\x0c'
p1340
tp1341
Rp1342
ssI1205254
(dp1343
g2
g3
((lp1344
g52
aS'Parent'
p1345
ag25
ag210
ag28
ag198
atp1346
Rp1347
sg12
g13
(S'\x07\xe1\x01\x0f\x0b\x168\x00\x97%'
p1348
tp1349
Rp1350
sg17
g18
(S'\x07\xe1\x02\x0c'
p1351
tp1352
Rp1353
ssI1219591
(dp1354
g2
g3
((lp1355
S'IPA Study'
p1356
ag54
aS'Flexible Credit Study'
p1357
ag124
ag1001
aS'Colombia'
p1358
aS'Repeat Borrower'
p1359
atp1360
Rp1361
sg12
g13
(S"\x07\xe1\x01\x0f\x0b\x168\x00\x91'"
p1362
tp1363
Rp1364
sg17
g18
(S'\x07\xe1\x02\r'
p1365
tp1366
Rp1367
ssI1219593
(dp1368
g382
g3
((lp1369
S'El Salvador'
p1370
aS'Food'
p1371
ag384
aS'North_America'
p1372
aS'Eco-friendly'
p1373
atp1374
Rp1375
sg392
g18
(S'\x07\xe1\x02\x0c'
p1376
tp1377
Rp1378
ssI1219596
(dp1379
g840
g3
((lp1380
S'Higher Education'
p1381
aS'Honduras'
p1382
aS'user_favorite'
p1383
aS'Parent'
p1384
aS'Schooling'
p1385
aS'Female Education'
p1386
aS'Education'
p1387
aS'North_America'
p1388
atp1389
Rp1390
sg851
g13
(S'\x07\xe1\x01\x0f\x0b\x11+\x0c\xe1\x1e'
p1391
tp1392
Rp1393
sg855
g18
(S'\x07\xe1\x02\x0c'
p1394
tp1395
Rp1396
ssI1219599
(dp1397
S'elements'
p1398
g3
((lp1399
S'El Salvador'
p1400
aS'Food'
p1401
aS'North_America'
p1402
aS'Fabrics'
p1403
atp1404
Rp1405
sS'expired_at'
p1406
g18
(S'\x07\xe1\x02\x0c'
p1407
tp1408
Rp1409
ssI1219600
(dp1410
g2
g3
((lp1411
g637
aS'Honduras'
p1412
ag52
aS'Parent'
p1413
aS'Schooling'
p1414
aS'Female Education'
p1415
ag196
ag8
atp1416
Rp1417
sg12
g13
(S'\x07\xe1\x01\x0f\x0b\x168\x00\xa4\xc0'
p1418
tp1419
Rp1420
sg17
g18
(S'\x07\xe1\x02\x0c'
p1421
tp1422
Rp1423
ssI1219606
(dp1424
g695
g3
((lp1425
S'Woman Owned Biz'
p1426
aS'Guatemala'
p1427
aS'North_America'
p1428
aS'Arts'
p1429
atp1430
Rp1431
sg703
g18
(S'\x07\xe1\x02\x0c'
p1432
tp1433
Rp1434
ssI1219607
(dp1435
g382
g3
((lp1436
g1370
aS'Retail'
p1437
ag1372
aS'Eco-friendly'
p1438
atp1439
Rp1440
sg392
g18
(S'\x07\xe1\x02\x0c'
p1441
tp1442
Rp1443
ssI1219608
(dp1444
g236
g3
((lp1445
S'El Salvador'
p1446
aS'Clothing'
p1447
aS'North_America'
p1448
atp1449
Rp1450
sg243
g18
(S'\x07\xe1\x02\x0c'
p1451
tp1452
Rp1453
ssI1219611
(dp1454
g2
g3
((lp1455
S'Oceania'
p1456
aS'Samoa'
p1457
ag52
aS'Parent'
p1458
aS'Biz Durable Asset'
p1459
ag111
aS'Woman Owned Biz'
p1460
ag977
atp1461
Rp1462
sg12
g13
(S'\x07\xe1\x01\x0f\x0b\x168\x00\xa3\xa2'
p1463
tp1464
Rp1465
sg17
g18
(S'\x07\xe1\x02\x0c'
p1466
tp1467
Rp1468
ssI1219612
(dp1469
g2
g3
((lp1470
g1456
ag6
ag52
aS'Parent'
p1471
ag1457
ag111
aS'Woman Owned Biz'
p1472
aS'Repair Renew Replace'
p1473
atp1474
Rp1475
sg12
g13
(S'\x07\xe1\x01\x0f\x0b\x168\x00\xa3U'
p1476
tp1477
Rp1478
sg17
g18
(S'\x07\xe1\x02\x0c'
p1479
tp1480
Rp1481
ssI1219613
(dp1482
g2
g3
((lp1483
g1456
ag1457
aS'Parent'
p1484
ag54
aS'Biz Durable Asset'
p1485
ag111
aS'Woman Owned Biz'
p1486
atp1487
Rp1488
sg12
g13
(S'\x07\xe1\x01\x0f\x0b\x168\x00\xa3o'
p1489
tp1490
Rp1491
sg17
g18
(S'\x07\xe1\x02\x0c'
p1492
tp1493
Rp1494
ssI1219614
(dp1495
g2
g3
((lp1496
g740
ag8
aS'Health and Sanitation'
p1497
aS'Mexico'
p1498
atp1499
Rp1500
sg12
g13
(S'\x07\xe1\x01\x0f\x0b\x168\x00\x85\x1d'
p1501
tp1502
Rp1503
sg17
g18
(S'\x07\xe1\x02\r'
p1504
tp1505
Rp1506
ssI1203232
(dp1507
g2
g3
((lp1508
g54
ag108
aS'Supporting Family'
p1509
ag109
ag111
atp1510
Rp1511
sg12
g13
(S'\x07\xe1\x01\x0f\x0b\x168\x00\x98d'
p1512
tp1513
Rp1514
sg17
g18
(S'\x07\xe1\x02\x0c'
p1515
tp1516
Rp1517
ssI1219621
(dp1518
g695
g3
((lp1519
S'Food'
p1520
aS'Woman Owned Biz'
p1521
aS'Oceania'
p1522
aS'Samoa'
p1523
ag1018
atp1524
Rp1525
sg703
g18
(S'\x07\xe1\x02\x0c'
p1526
tp1527
Rp1528
ssI1219622
(dp1529
g2
g3
((lp1530
S'Supporting Family'
p1531
aS'Health and Sanitation'
p1532
ag1498
aS'Single'
p1533
ag740
ag8
atp1534
Rp1535
sg12
g13
(S'\x07\xe1\x01\x0f\x0b\x168\x00\x97\x10'
p1536
tp1537
Rp1538
sg17
g18
(S'\x07\xe1\x02\x0c'
p1539
tp1540
Rp1541
ssI1219623
(dp1542
g38
g3
((lp1543
S'Samoa'
p1544
aS'Retail'
p1545
aS'Oceania'
p1546
aS'Underfunded Areas'
p1547
atp1548
Rp1549
sg46
g18
(S'\x07\xe1\x02\x0c'
p1550
tp1551
Rp1552
ssI1219624
(dp1553
g2
g3
((lp1554
g1456
ag1457
aS'Biz Durable Asset'
p1555
aS'Elderly'
p1556
ag111
aS'Woman Owned Biz'
p1557
ag977
atp1558
Rp1559
sg12
g13
(S'\x07\xe1\x01\x0f\x0b\x168\x00\xa3\x0c'
p1560
tp1561
Rp1562
sg17
g18
(S'\x07\xe1\x02\x0c'
p1563
tp1564
Rp1565
ssI1219625
(dp1566
g2
g3
((lp1567
g1456
ag1457
aS'Parent'
p1568
ag54
aS'Biz Durable Asset'
p1569
ag111
aS'Woman Owned Biz'
p1570
atp1571
Rp1572
sg12
g13
(S'\x07\xe1\x01\x0f\x0b\x168\x00\xa3%'
p1573
tp1574
Rp1575
sg17
g18
(S'\x07\xe1\x02\x0c'
p1576
tp1577
Rp1578
ssI1219627
(dp1579
g2
g3
((lp1580
g52
aS'Parent'
p1581
ag82
aS'Timor-Leste'
p1582
ag111
aS'Woman Owned Biz'
p1583
ag977
atp1584
Rp1585
sg12
g13
(S'\x07\xe1\x01\x0f\x0b\x168\x00\xa2\xbe'
p1586
tp1587
Rp1588
sg17
g18
(S'\x07\xe1\x02\x0c'
p1589
tp1590
Rp1591
ssI1219629
(dp1592
g2
g3
((lp1593
g1456
ag1457
aS'Parent'
p1594
ag54
aS'Biz Durable Asset'
p1595
ag111
aS'Woman Owned Biz'
p1596
atp1597
Rp1598
sg12
g13
(S'\x07\xe1\x01\x0f\x0b\x168\x00\xa3<'
p1599
tp1600
Rp1601
sg17
g18
(S'\x07\xe1\x02\x0c'
p1602
tp1603
Rp1604
ssI1219630
(dp1605
g2
g3
((lp1606
g225
ag109
aS'Parent'
p1607
aS'Personal Use'
p1608
atp1609
Rp1610
sg12
g13
(S'\x07\xe1\x01\x0f\x0b\x168\x00\xa2\xa5'
p1611
tp1612
Rp1613
sg17
g18
(S'\x07\xe1\x02\x0c'
p1614
tp1615
Rp1616
ssI1219631
(dp1617
g408
g3
((lp1618
S'Paraguay'
p1619
aS'Services'
p1620
ag1283
ag665
atp1621
Rp1622
sg415
g18
(S'\x07\xe1\x02\r'
p1623
tp1624
Rp1625
ssI1219634
(dp1626
g695
g3
((lp1627
S'Woman Owned Biz'
p1628
aS'Housing'
p1629
aS'Vietnam'
p1630
ag699
aS'Water and Sanitation'
p1631
atp1632
Rp1633
sg703
g18
(S'\x07\xe1\x02\x0c'
p1634
tp1635
Rp1636
ssI1219635
(dp1637
g2
g3
((lp1638
g637
ag52
ag124
aS'Schooling'
p1639
ag297
aS'Repeat Borrower'
p1640
ag196
atp1641
Rp1642
sg12
g13
(S'\x07\xe1\x01\x0f\x0b\x168\x00\xa6Y'
p1643
tp1644
Rp1645
sg17
g18
(S'\x07\xe1\x02\x0c'
p1646
tp1647
Rp1648
ssI1219636
(dp1649
g2
g3
((lp1650
S'Supporting Family'
p1651
ag52
ag54
ag260
aS'Biz Durable Asset'
p1652
ag109
atp1653
Rp1654
sg12
g13
(S'\x07\xe1\x01\x0f\x0b\x168\x00\xa2r'
p1655
tp1656
Rp1657
sg17
g18
(S'\x07\xe1\x02\x0c'
p1658
tp1659
Rp1660
ssI1219637
(dp1661
g2
g3
((lp1662
g637
ag52
ag124
aS'Schooling'
p1663
ag297
aS'Repeat Borrower'
p1664
ag196
atp1665
Rp1666
sg12
g13
(S'\x07\xe1\x01\x0f\x0b\x168\x00\xa6@'
p1667
tp1668
Rp1669
sg17
g18
(S'\x07\xe1\x02\x0c'
p1670
tp1671
Rp1672
ssI1219638
(dp1673
g2
g3
((lp1674
g637
ag52
ag124
aS'Schooling'
p1675
ag297
ag196
atp1676
Rp1677
sg12
g13
(S'\x07\xe1\x01\x0f\x0b\x168\x00\xa6\x0c'
p1678
tp1679
Rp1680
sg17
g18
(S'\x07\xe1\x02\x0c'
p1681
tp1682
Rp1683
ssI1219640
(dp1684
g2
g3
((lp1685
S'Woman Owned Biz'
p1686
ag260
ag977
ag109
atp1687
Rp1688
sg12
g13
(S'\x07\xe1\x01\x0f\x0b\x168\x00\xa2\x8c'
p1689
tp1690
Rp1691
sg17
g18
(S'\x07\xe1\x02\x0c'
p1692
tp1693
Rp1694
ssI1219643
(dp1695
g2
g3
((lp1696
g297
ag124
ag637
ag196
aS'Schooling'
p1697
atp1698
Rp1699
sg12
g13
(S'\x07\xe1\x01\x0f\x0b\x168\x00\xa4\xf3'
p1700
tp1701
Rp1702
sg17
g18
(S'\x07\xe1\x02\x0c'
p1703
tp1704
Rp1705
ssI1219644
(dp1706
g2
g3
((lp1707
g54
ag260
ag109
aS'Elderly'
p1708
atp1709
Rp1710
sg12
g13
(S'\x07\xe1\x01\x0f\x0b\x168\x00\xa2?'
p1711
tp1712
Rp1713
sg17
g18
(S'\x07\xe1\x02\x0c'
p1714
tp1715
Rp1716
ssI1219645
(dp1717
g2
g3
((lp1718
g637
ag52
ag124
aS'Schooling'
p1719
aS'Female Education'
p1720
ag297
ag196
atp1721
Rp1722
sg12
g13
(S'\x07\xe1\x01\x0f\x0b\x168\x00\xa5\x0c'
p1723
tp1724
Rp1725
sg17
g18
(S'\x07\xe1\x02\x0c'
p1726
tp1727
Rp1728
ssI1219646
(dp1729
g382
g3
((lp1730
S'Agriculture'
p1731
ag385
ag387
aS'Eco-friendly'
p1732
atp1733
Rp1734
sg392
g18
(S'\x07\xe1\x02\x0c'
p1735
tp1736
Rp1737
ssI1219647
(dp1738
g2
g3
((lp1739
g637
ag124
aS'Schooling'
p1740
ag297
ag196
aS'Technology'
p1741
atp1742
Rp1743
sg12
g13
(S'\x07\xe1\x01\x0f\x0b\x168\x00\xa4\xda'
p1744
tp1745
Rp1746
sg17
g18
(S'\x07\xe1\x02\x0c'
p1747
tp1748
Rp1749
ssI1219648
(dp1750
g2
g3
((lp1751
g28
ag225
aS'Animals'
p1752
ag109
aS'Parent'
p1753
atp1754
Rp1755
sg12
g13
(S'\x07\xe1\x01\x0f\x0b\x168\x00\xa2X'
p1756
tp1757
Rp1758
sg17
g18
(S'\x07\xe1\x02\x0c'
p1759
tp1760
Rp1761
ssI1219650
(dp1762
g2
g3
((lp1763
S'Elderly'
p1764
aS'Parent'
p1765
aS'First Loan'
p1766
ag54
ag109
aS'Vegan'
p1767
aS'Woman Owned Biz'
p1768
ag225
atp1769
Rp1770
sg12
g13
(S'\x07\xe1\x01\x0f\x0b\x168\x00\xa1\xf2'
p1771
tp1772
Rp1773
sg17
g18
(S'\x07\xe1\x02\x0c'
p1774
tp1775
Rp1776
ssI1219651
(dp1777
g2
g3
((lp1778
g1213
aS'Animals'
p1779
ag52
ag109
aS'Elderly'
p1780
ag28
atp1781
Rp1782
sg12
g13
(S'\x07\xe1\x01\x0f\x0b\x168\x00}\xea'
p1783
tp1784
Rp1785
sg17
g18
(S'\x07\xe1\x02\x0e'
p1786
tp1787
Rp1788
ssI1219652
(dp1789
g695
g3
((lp1790
S'Woman Owned Biz'
p1791
ag698
aS'Cambodia'
p1792
ag699
atp1793
Rp1794
sg703
g18
(S'\x07\xe1\x02\x0c'
p1795
tp1796
Rp1797
ssI1219654
(dp1798
g2
g3
((lp1799
S'Job Creator'
p1800
aS'Parent'
p1801
aS'Schooling'
p1802
aS'Vegan'
p1803
ag225
aS'Repeat Borrower'
p1804
ag109
ag28
atp1805
Rp1806
sg12
g13
(S'\x07\xe1\x01\x0f\x0b\x168\x00\xa0\xf2'
p1807
tp1808
Rp1809
sg17
g18
(S'\x07\xe1\x02\x0c'
p1810
tp1811
Rp1812
ssI1219655
(dp1813
g2
g3
((lp1814
S'First Loan'
p1815
aS'Parent'
p1816
ag1608
ag109
aS'Green'
p1817
aS'Eco-friendly'
p1818
ag225
aS'Technology'
p1819
atp1820
Rp1821
sg12
g13
(S'\x07\xe1\x01\x0f\x0b\x168\x00\xa2\r'
p1822
tp1823
Rp1824
sg17
g18
(S'\x07\xe1\x02\x0c'
p1825
tp1826
Rp1827
ssI1219656
(dp1828
g2
g3
((lp1829
S'Widowed'
p1830
ag225
ag109
ag1608
atp1831
Rp1832
sg12
g13
(S'\x07\xe1\x01\x0f\x0b\x168\x00\xa2%'
p1833
tp1834
Rp1835
sg17
g18
(S'\x07\xe1\x02\x0c'
p1836
tp1837
Rp1838
ssI1219658
(dp1839
S'elements'
p1840
g3
((lp1841
S'Cambodia'
p1842
aS'Personal Use'
p1843
aS'Elderly'
p1844
aS'Asia'
p1845
aS'Woman Owned Biz'
p1846
aS'Repeat Borrower'
p1847
atp1848
Rp1849
sS'expired_at'
p1850
g18
(S'\x07\xe1\x02\x0c'
p1851
tp1852
Rp1853
ssI1219660
(dp1854
g2
g3
((lp1855
g1213
aS'Animals'
p1856
aS'Widowed'
p1857
ag109
aS'Elderly'
p1858
ag28
atp1859
Rp1860
sg12
g13
(S'\x07\xe1\x01\x0f\x0b\x168\x00{s'
p1861
tp1862
Rp1863
sg17
g18
(S'\x07\xe1\x02\x0e'
p1864
tp1865
Rp1866
ssI1207138
(dp1867
g695
g3
((lp1868
g949
ag948
aS'Personal Use'
p1869
ag699
aS'Woman Owned Biz'
p1870
aS'Refugees\\/Displaced'
p1871
atp1872
Rp1873
sg703
g18
(S'\x07\xe1\x02\x0c'
p1874
tp1875
Rp1876
ssI1219662
(dp1877
g2
g3
((lp1878
g52
aS'Parent'
p1879
aS'Schooling'
p1880
ag109
aS'Female Education'
p1881
aS'Vietnam'
p1882
ag196
atp1883
Rp1884
sg12
g13
(S'\x07\xe1\x01\x0f\x0b\x168\x00\xa1\xa4'
p1885
tp1886
Rp1887
sg17
g18
(S'\x07\xe1\x02\x0c'
p1888
tp1889
Rp1890
ssI1219663
(dp1891
g2
g3
((lp1892
S'Animals'
p1893
ag223
ag109
ag1882
aS'Woman Owned Biz'
p1894
ag28
atp1895
Rp1896
sg12
g13
(S'\x07\xe1\x01\x0f\x0b\x168\x00\xa1X'
p1897
tp1898
Rp1899
sg17
g18
(S'\x07\xe1\x02\x0c'
p1900
tp1901
Rp1902
ssI1219664
(dp1903
g2
g3
((lp1904
g28
ag1213
aS'Animals'
p1905
ag109
aS'Parent'
p1906
atp1907
Rp1908
sg12
g13
(S'\x07\xe1\x01\x0f\x0b\x168\x00{\x1b'
p1909
tp1910
Rp1911
sg17
g18
(S'\x07\xe1\x02\x0e'
p1912
tp1913
Rp1914
ssI1219665
(dp1915
g2
g3
((lp1916
S'Animals'
p1917
ag223
aS'Parent'
p1918
ag109
ag1882
ag28
atp1919
Rp1920
sg12
g13
(S'\x07\xe1\x01\x0f\x0b\x168\x00\xa0\xd8'
p1921
tp1922
Rp1923
sg17
g18
(S'\x07\xe1\x02\x0c'
p1924
tp1925
Rp1926
ssI1219666
(dp1927
g2
g3
((lp1928
S'Animals'
p1929
ag223
aS'Parent'
p1930
aS'Biz Durable Asset'
p1931
ag109
ag1882
ag28
atp1932
Rp1933
sg12
g13
(S'\x07\xe1\x01\x0f\x0b\x168\x00\xa0\xa5'
p1934
tp1935
Rp1936
sg17
g18
(S'\x07\xe1\x02\x0c'
p1937
tp1938
Rp1939
ssI1219668
(dp1940
g2
g3
((lp1941
S'Animals'
p1942
ag223
aS'Biz Durable Asset'
p1943
ag109
ag1882
aS'Woman Owned Biz'
p1944
ag28
atp1945
Rp1946
sg12
g13
(S'\x07\xe1\x01\x0f\x0b\x168\x00\xa0W'
p1947
tp1948
Rp1949
sg17
g18
(S'\x07\xe1\x02\x0c'
p1950
tp1951
Rp1952
ssI1219669
(dp1953
g2
g3
((lp1954
g1213
aS'Animals'
p1955
ag52
aS'Parent'
p1956
ag109
ag28
atp1957
Rp1958
sg12
g13
(S'\x07\xe1\x01\x0f\x0b\x168\x00{9'
p1959
tp1960
Rp1961
sg17
g18
(S'\x07\xe1\x02\x0e'
p1962
tp1963
Rp1964
ssI1219670
(dp1965
g2
g3
((lp1966
g223
aS'Parent'
p1967
ag224
ag109
ag1882
aS'Repair Renew Replace'
p1968
atp1969
Rp1970
sg12
g13
(S'\x07\xe1\x01\x0f\x0b\x168\x00\x9f\xf1'
p1971
tp1972
Rp1973
sg17
g18
(S'\x07\xe1\x02\x0c'
p1974
tp1975
Rp1976
ssI1219671
(dp1977
g2
g3
((lp1978
S'Job Creator'
p1979
aS'Myanmar (Burma)'
p1980
ag82
aS'Conflict Zones'
p1981
ag111
aS'Woman Owned Biz'
p1982
ag28
ag198
atp1983
Rp1984
sg12
g13
(S'\x07\xe1\x01\x0f\x0b\x168\x00\xa1r'
p1985
tp1986
Rp1987
sg17
g18
(S'\x07\xe1\x02\x0c'
p1988
tp1989
Rp1990
ssI1219672
(dp1991
g2
g3
((lp1992
g28
ag1213
aS'Animals'
p1993
aS'Repeat Borrower'
p1994
ag109
atp1995
Rp1996
sg12
g13
(S'\x07\xe1\x01\x0f\x0b\x168\x00{V'
p1997
tp1998
Rp1999
sg17
g18
(S'\x07\xe1\x02\x0e'
p2000
tp2001
Rp2002
ssI1219674
(dp2003
g2
g3
((lp2004
S'Animals'
p2005
ag223
aS'Parent'
p2006
ag109
ag1882
ag28
atp2007
Rp2008
sg12
g13
(S'\x07\xe1\x01\x0f\x0b\x168\x00\x9d?'
p2009
tp2010
Rp2011
sg17
g18
(S'\x07\xe1\x02\x0c'
p2012
tp2013
Rp2014
ssI1219675
(dp2015
g2
g3
((lp2016
g223
ag224
aS'Elderly'
p2017
ag1882
ag109
aS'Repair Renew Replace'
p2018
atp2019
Rp2020
sg12
g13
(S'\x07\xe1\x01\x0f\x0b\x168\x00\x96\xd0'
p2021
tp2022
Rp2023
sg17
g18
(S'\x07\xe1\x02\x0c'
p2024
tp2025
Rp2026
ssI1219677
(dp2027
g2
g3
((lp2028
S'Animals'
p2029
ag223
aS'Parent'
p2030
ag109
ag1882
ag28
atp2031
Rp2032
sg12
g13
(S'\x07\xe1\x01\x0f\x0b\x168\x00\x96e'
p2033
tp2034
Rp2035
sg17
g18
(S'\x07\xe1\x02\x0c'
p2036
tp2037
Rp2038
ssI1219679
(dp2039
g2
g3
((lp2040
g286
ag109
ag740
aS'Elderly'
p2041
aS'Health and Sanitation'
p2042
atp2043
Rp2044
sg12
g13
(S'\x07\xe1\x01\x0f\x0b\x168\x00\x93\xc0'
p2045
tp2046
Rp2047
sg17
g18
(S'\x07\xe1\x02\r'
p2048
tp2049
Rp2050
ssI1219680
(dp2051
g2
g3
((lp2052
g52
aS'Schooling'
p2053
ag109
ag1882
aS'Elderly'
p2054
ag196
atp2055
Rp2056
sg12
g13
(S'\x07\xe1\x01\x0f\x0b\x168\x00\x93\x80'
p2057
tp2058
Rp2059
sg17
g18
(S'\x07\xe1\x02\r'
p2060
tp2061
Rp2062
ssI1219681
(dp2063
g2
g3
((lp2064
S'Parent'
p2065
aS'Schooling'
p2066
ag109
ag358
ag225
aS'Repeat Borrower'
p2067
atp2068
Rp2069
sg12
g13
(S'\x07\xe1\x01\x0f\x0b\x168\x00\x93\x95'
p2070
tp2071
Rp2072
sg17
g18
(S'\x07\xe1\x02\r'
p2073
tp2074
Rp2075
ssI1219682
(dp2076
g695
g3
((lp2077
S'Woman Owned Biz'
p2078
ag698
ag1792
ag699
ag781
atp2079
Rp2080
sg703
g18
(S'\x07\xe1\x02\r'
p2081
tp2082
Rp2083
ssI1219683
(dp2084
g2
g3
((lp2085
g1213
aS'Animals'
p2086
ag109
aS'Elderly'
p2087
aS'Woman Owned Biz'
p2088
ag28
atp2089
Rp2090
sg12
g13
(S'\x07\xe1\x01\x0f\x0b\x168\x00x\x81'
p2091
tp2092
Rp2093
sg17
g18
(S'\x07\xe1\x02\x0e'
p2094
tp2095
Rp2096
ssI1219684
(dp2097
g2
g3
((lp2098
S'Widowed'
p2099
ag52
aS'Parent'
p2100
aS'Biz Durable Asset'
p2101
ag1608
aS'Elderly'
p2102
ag109
ag225
aS'Repeat Borrower'
p2103
atp2104
Rp2105
sg12
g13
(S'\x07\xe1\x01\x0f\x0b\x168\x00\x9e\x8c'
p2106
tp2107
Rp2108
sg17
g18
(S'\x07\xe1\x02\x0c'
p2109
tp2110
Rp2111
ssI1219685
(dp2112
g2
g3
((lp2113
g28
ag1213
aS'Animals'
p2114
aS'Repeat Borrower'
p2115
ag109
atp2116
Rp2117
sg12
g13
(S'\x07\xe1\x01\x0f\x0b\x168\x00xb'
p2118
tp2119
Rp2120
sg17
g18
(S'\x07\xe1\x02\x0e'
p2121
tp2122
Rp2123
ssI1219687
(dp2124
g2
g3
((lp2125
g286
ag28
ag109
aS'Parent'
p2126
atp2127
Rp2128
sg12
g13
(S'\x07\xe1\x01\x0f\x0b\x168\x00\x9f\x8a'
p2129
tp2130
Rp2131
sg17
g18
(S'\x07\xe1\x02\x0c'
p2132
tp2133
Rp2134
ssI1219688
(dp2135
g2
g3
((lp2136
g54
ag286
ag109
atp2137
Rp2138
sg12
g13
(S'\x07\xe1\x01\x0f\x0b\x168\x00xC'
p2139
tp2140
Rp2141
sg17
g18
(S'\x07\xe1\x02\x0e'
p2142
tp2143
Rp2144
ssI1219690
(dp2145
g2
g3
((lp2146
S'Parent'
p2147
ag224
ag225
ag109
aS'Repeat Borrower'
p2148
aS'Repair Renew Replace'
p2149
atp2150
Rp2151
sg12
g13
(S'\x07\xe1\x01\x0f\x0b\x168\x00\xa1\x0c'
p2152
tp2153
Rp2154
sg17
g18
(S'\x07\xe1\x02\x0c'
p2155
tp2156
Rp2157
ssI1219694
(dp2158
g2
g3
((lp2159
S'Woman Owned Biz'
p2160
ag1213
ag28
aS'Repeat Borrower'
p2161
ag109
atp2162
Rp2163
sg12
g13
(S'\x07\xe1\x01\x0f\x0b\x168\x00x\x1f'
p2164
tp2165
Rp2166
sg17
g18
(S'\x07\xe1\x02\x0e'
p2167
tp2168
Rp2169
ssI1219696
(dp2170
g2
g3
((lp2171
S'Woman Owned Biz'
p2172
ag1213
ag28
aS'Repeat Borrower'
p2173
ag109
atp2174
Rp2175
sg12
g13
(S'\x07\xe1\x01\x0f\x0b\x168\x00w\xe7'
p2176
tp2177
Rp2178
sg17
g18
(S'\x07\xe1\x02\x0e'
p2179
tp2180
Rp2181
ssI1219698
(dp2182
g2
g3
((lp2183
g286
ag333
ag109
aS'Parent'
p2184
aS'Woman Owned Biz'
p2185
atp2186
Rp2187
sg12
g13
(S'\x07\xe1\x01\x0f\x0b\x168\x00\xa0\xbe'
p2188
tp2189
Rp2190
sg17
g18
(S'\x07\xe1\x02\x0c'
p2191
tp2192
Rp2193
ssI1219699
(dp2194
g2
g3
((lp2195
S'Woman Owned Biz'
p2196
ag1213
ag28
aS'Repeat Borrower'
p2197
ag109
atp2198
Rp2199
sg12
g13
(S'\x07\xe1\x01\x0f\x0b\x168\x00wn'
p2200
tp2201
Rp2202
sg17
g18
(S'\x07\xe1\x02\x0e'
p2203
tp2204
Rp2205
ssI1217658
(dp2206
g2
g3
((lp2207
g54
ag359
ag25
ag52
aS'Parent'
p2208
atp2209
Rp2210
sg12
g13
(S'\x07\xe1\x01\x0f\x0b\x168\x00\x90%'
p2211
tp2212
Rp2213
sg17
g18
(S'\x07\xe1\x02\r'
p2214
tp2215
Rp2216
ssI1220458
(dp2217
g2
g3
((lp2218
g260
ag358
aS'Job Creator'
p2219
aS'Water and Sanitation'
p2220
ag109
atp2221
Rp2222
sg12
g13
(S'\x07\xe1\x01\x0f\x0b\x168\x00\x7f\xbc'
p2223
tp2224
Rp2225
sg17
g18
(S'\x07\xe1\x02\r'
p2226
tp2227
Rp2228
ssI1217662
(dp2229
g2
g3
((lp2230
g54
aS'Woman Owned Biz'
p2231
aS'Disaster recovery'
p2232
aS'Costa Rica'
p2233
ag8
atp2234
Rp2235
sg12
g13
(S'\x07\xe1\x01\x0f\x0b\x168\x00\x95h'
p2236
tp2237
Rp2238
sg17
g18
(S'\x07\xe1\x02\x0c'
p2239
tp2240
Rp2241
ssI1219713
(dp2242
g2
g3
((lp2243
S'Supporting Family'
p2244
aS'Woman Owned Biz'
p2245
ag260
ag977
ag109
atp2246
Rp2247
sg12
g13
(S'\x07\xe1\x01\x0f\x0b\x168\x00\xa0>'
p2248
tp2249
Rp2250
sg17
g18
(S'\x07\xe1\x02\x0c'
p2251
tp2252
Rp2253
ssI1217666
(dp2254
g2
g3
((lp2255
g1293
aS'Repeat Borrower'
p2256
ag6
ag8
ag223
atp2257
Rp2258
sg12
g13
(S'\x07\xe1\x01\x0f\x0b\x168\x00\x90z'
p2259
tp2260
Rp2261
sg17
g18
(S'\x07\xe1\x02\r'
p2262
tp2263
Rp2264
ssI1219717
(dp2265
g2
g3
((lp2266
g260
aS'Repair Renew Replace'
p2267
ag224
ag109
atp2268
Rp2269
sg12
g13
(S'\x07\xe1\x01\x0f\x0b\x168\x00\x9eY'
p2270
tp2271
Rp2272
sg17
g18
(S'\x07\xe1\x02\x0c'
p2273
tp2274
Rp2275
ssI1217674
(dp2276
g2
g3
((lp2277
g52
aS'Parent'
p2278
ag25
ag359
aS'Eco-friendly'
p2279
aS'Woman Owned Biz'
p2280
ag333
atp2281
Rp2282
sg12
g13
(S'\x07\xe1\x01\x0f\x0b\x168\x00\xa3\xbc'
p2283
tp2284
Rp2285
sg17
g18
(S'\x07\xe1\x02\x0c'
p2286
tp2287
Rp2288
ssI1219725
(dp2289
g2
g3
((lp2290
g54
aS'Woman Owned Biz'
p2291
aS'Biz Durable Asset'
p2292
ag286
ag109
atp2293
Rp2294
sg12
g13
(S'\x07\xe1\x01\x0f\x0b\x168\x00\x9f\xa4'
p2295
tp2296
Rp2297
sg17
g18
(S'\x07\xe1\x02\x0c'
p2298
tp2299
Rp2300
ssI1219726
(dp2301
g2
g3
((lp2302
g52
ag82
ag1582
ag111
aS'Woman Owned Biz'
p2303
ag977
atp2304
Rp2305
sg12
g13
(S'\x07\xe1\x01\x0f\x0b\x168\x00\x9fp'
p2306
tp2307
Rp2308
sg17
g18
(S'\x07\xe1\x02\x0c'
p2309
tp2310
Rp2311
ssI1219728
(dp2312
g2
g3
((lp2313
g108
ag109
ag345
aS'Woman Owned Biz'
p2314
aS'Fabrics'
p2315
ag198
atp2316
Rp2317
sg12
g13
(S'\x07\xe1\x01\x0f\x0b\x168\x00\x9e\xa6'
p2318
tp2319
Rp2320
sg17
g18
(S'\x07\xe1\x02\x0c'
p2321
tp2322
Rp2323
ssI1219729
(dp2324
g2
g3
((lp2325
g108
ag109
ag345
aS'Woman Owned Biz'
p2326
aS'Fabrics'
p2327
ag198
atp2328
Rp2329
sg12
g13
(S'\x07\xe1\x01\x0f\x0b\x168\x00\x9e\xc0'
p2330
tp2331
Rp2332
sg17
g18
(S'\x07\xe1\x02\x0c'
p2333
tp2334
Rp2335
ssI1219732
(dp2336
g2
g3
((lp2337
g345
ag108
aS'Fabrics'
p2338
ag109
ag198
atp2339
Rp2340
sg12
g13
(S'\x07\xe1\x01\x0f\x0b\x168\x00\x9e\xda'
p2341
tp2342
Rp2343
sg17
g18
(S'\x07\xe1\x02\x0c'
p2344
tp2345
Rp2346
ssI1219733
(dp2347
g2
g3
((lp2348
S'Supporting Family'
p2349
ag108
aS'Biz Durable Asset'
p2350
ag109
ag345
aS'Woman Owned Biz'
p2351
ag198
atp2352
Rp2353
sg12
g13
(S'\x07\xe1\x01\x0f\x0b\x168\x00\x9e\xf3'
p2354
tp2355
Rp2356
sg17
g18
(S'\x07\xe1\x02\x0c'
p2357
tp2358
Rp2359
ssI1219734
(dp2360
g236
g3
((lp2361
S'Food'
p2362
aS'Rural Exclusion'
p2363
aS'India'
p2364
ag240
aS'Underfunded Areas'
p2365
atp2366
Rp2367
sg243
g18
(S'\x07\xe1\x02\x0c'
p2368
tp2369
Rp2370
ssI1219739
(dp2371
g2
g3
((lp2372
g25
aS'Eco-friendly'
p2373
ag210
aS'Woman Owned Biz'
p2374
ag333
ag198
atp2375
Rp2376
sg12
g13
(S'\x07\xe1\x01\x0f\x0b\x168\x00\x9d\x8b'
p2377
tp2378
Rp2379
sg17
g18
(S'\x07\xe1\x02\x0c'
p2380
tp2381
Rp2382
ssI1219740
(dp2383
g2
g3
((lp2384
g286
ag109
ag740
aS'Elderly'
p2385
aS'Health and Sanitation'
p2386
atp2387
Rp2388
sg12
g13
(S'\x07\xe1\x01\x0f\x0b\x168\x00\x9ct'
p2389
tp2390
Rp2391
sg17
g18
(S'\x07\xe1\x02\x0c'
p2392
tp2393
Rp2394
ssI1219741
(dp2395
g2
g3
((lp2396
g54
aS'Woman Owned Biz'
p2397
ag25
ag210
ag198
atp2398
Rp2399
sg12
g13
(S'\x07\xe1\x01\x0f\x0b\x168\x00\x9c('
p2400
tp2401
Rp2402
sg17
g18
(S'\x07\xe1\x02\x0c'
p2403
tp2404
Rp2405
ssI1219742
(dp2406
g38
g3
((lp2407
S'Food'
p2408
ag1547
aS'India'
p2409
ag175
ag483
atp2410
Rp2411
sg46
g18
(S'\x07\xe1\x02\x0c'
p2412
tp2413
Rp2414
ssI1213600
(dp2415
g2
g3
((lp2416
g52
aS'Parent'
p2417
ag54
ag25
aS'Woman Owned Biz'
p2418
ag57
atp2419
Rp2420
sg12
g13
(S'\x07\xe1\x01\x0f\x0b\x168\x00\x94\xa7'
p2421
tp2422
Rp2423
sg17
g18
(S'\x07\xe1\x02\x0c'
p2424
tp2425
Rp2426
ssI1219745
(dp2427
g2
g3
((lp2428
g108
ag109
ag345
aS'Woman Owned Biz'
p2429
aS'Fabrics'
p2430
ag198
atp2431
Rp2432
sg12
g13
(S'\x07\xe1\x01\x0f\x0b\x168\x00\x9f\r'
p2433
tp2434
Rp2435
sg17
g18
(S'\x07\xe1\x02\x0c'
p2436
tp2437
Rp2438
ssI1219746
(dp2439
g2
g3
((lp2440
S'Job Creator'
p2441
ag25
ag210
aS'Repeat Borrower'
p2442
ag28
ag198
atp2443
Rp2444
sg12
g13
(S'\x07\xe1\x01\x0f\x0b\x168\x00\x9e?'
p2445
tp2446
Rp2447
sg17
g18
(S'\x07\xe1\x02\x0c'
p2448
tp2449
Rp2450
ssI1219747
(dp2451
g2
g3
((lp2452
g108
aS'Parent'
p2453
ag109
ag345
aS'Fabrics'
p2454
ag198
atp2455
Rp2456
sg12
g13
(S'\x07\xe1\x01\x0f\x0b\x168\x00\x9e\x0c'
p2457
tp2458
Rp2459
sg17
g18
(S'\x07\xe1\x02\x0c'
p2460
tp2461
Rp2462
ssI1219748
(dp2463
g2
g3
((lp2464
g108
aS'Job Creator'
p2465
ag6
ag109
aS'Repair Renew Replace'
p2466
ag198
atp2467
Rp2468
sg12
g13
(S'\x07\xe1\x01\x0f\x0b\x168\x00\x7f\x9e'
p2469
tp2470
Rp2471
sg17
g18
(S'\x07\xe1\x02\r'
p2472
tp2473
Rp2474
ssI1219750
(dp2475
g2
g3
((lp2476
g345
ag108
aS'Fabrics'
p2477
ag109
ag198
atp2478
Rp2479
sg12
g13
(S'\x07\xe1\x01\x0f\x0b\x168\x00\x9dY'
p2480
tp2481
Rp2482
sg17
g18
(S'\x07\xe1\x02\x0c'
p2483
tp2484
Rp2485
ssI1219751
(dp2486
g2
g3
((lp2487
g108
aS'Biz Durable Asset'
p2488
ag109
ag345
aS'Fabrics'
p2489
ag198
atp2490
Rp2491
sg12
g13
(S'\x07\xe1\x01\x0f\x0b\x168\x00\x9dq'
p2492
tp2493
Rp2494
sg17
g18
(S'\x07\xe1\x02\x0c'
p2495
tp2496
Rp2497
ssI1219753
(dp2498
g2
g3
((lp2499
S'Supporting Family'
p2500
ag108
ag54
ag109
aS'Woman Owned Biz'
p2501
ag198
atp2502
Rp2503
sg12
g13
(S'\x07\xe1\x01\x0f\x0b\x168\x00\x9b\x8e'
p2504
tp2505
Rp2506
sg17
g18
(S'\x07\xe1\x02\x0c'
p2507
tp2508
Rp2509
ssI1219755
(dp2510
g2
g3
((lp2511
g108
aS'Animals'
p2512
ag109
aS'Elderly'
p2513
ag28
ag198
atp2514
Rp2515
sg12
g13
(S'\x07\xe1\x01\x0f\x0b\x168\x00\x9b['
p2516
tp2517
Rp2518
sg17
g18
(S'\x07\xe1\x02\x0c'
p2519
tp2520
Rp2521
ssI1219756
(dp2522
g2
g3
((lp2523
g345
ag108
aS'Fabrics'
p2524
ag109
ag198
atp2525
Rp2526
sg12
g13
(S'\x07\xe1\x01\x0f\x0b\x168\x00\x9bu'
p2527
tp2528
Rp2529
sg17
g18
(S'\x07\xe1\x02\x0c'
p2530
tp2531
Rp2532
ssI1219757
(dp2533
g2
g3
((lp2534
g108
ag109
ag345
aS'Woman Owned Biz'
p2535
aS'Fabrics'
p2536
ag198
atp2537
Rp2538
sg12
g13
(S'\x07\xe1\x01\x0f\x0b\x168\x00\x9b\x0e'
p2539
tp2540
Rp2541
sg17
g18
(S'\x07\xe1\x02\x0c'
p2542
tp2543
Rp2544
ssI1219758
(dp2545
g2
g3
((lp2546
g491
ag285
aS'Arts'
p2547
ag495
ag52
atp2548
Rp2549
sg12
g13
(S'\x07\xe1\x01\x0f\x0b\x168\x00\x9d&'
p2550
tp2551
Rp2552
sg17
g18
(S'\x07\xe1\x02\x0c'
p2553
tp2554
Rp2555
ssI1219759
(dp2556
g2
g3
((lp2557
g108
ag52
ag109
ag345
aS'Fabrics'
p2558
ag198
atp2559
Rp2560
sg12
g13
(S'\x07\xe1\x01\x0f\x0b\x168\x00\x9c\xd9'
p2561
tp2562
Rp2563
sg17
g18
(S'\x07\xe1\x02\x0c'
p2564
tp2565
Rp2566
ssI1219760
(dp2567
g2
g3
((lp2568
g345
ag108
aS'Fabrics'
p2569
ag109
ag198
atp2570
Rp2571
sg12
g13
(S'\x07\xe1\x01\x0f\x0b\x168\x00\x9c\x8e'
p2572
tp2573
Rp2574
sg17
g18
(S'\x07\xe1\x02\x0c'
p2575
tp2576
Rp2577
ssI1219761
(dp2578
g2
g3
((lp2579
g108
ag2547
ag52
ag109
aS'Fabrics'
p2580
ag198
atp2581
Rp2582
sg12
g13
(S'\x07\xe1\x01\x0f\x0b\x168\x00\x9c\xa7'
p2583
tp2584
Rp2585
sg17
g18
(S'\x07\xe1\x02\x0c'
p2586
tp2587
Rp2588
ssI1219443
(dp2589
g2
g3
((lp2590
S'Parent'
p2591
ag25
ag24
aS'Repeat Borrower'
p2592
ag28
ag198
atp2593
Rp2594
sg12
g13
(S'\x07\xe1\x01\x0f\x0b\x168\x00\xa6p'
p2595
tp2596
Rp2597
sg17
g18
(S'\x07\xe1\x02\x0c'
p2598
tp2599
Rp2600
ssI1219764
(dp2601
g2
g3
((lp2602
g28
aS'Animals'
p2603
ag225
ag109
atp2604
Rp2605
sg12
g13
(S'\x07\xe1\x01\x0f\x0b\x168\x00\x9cZ'
p2606
tp2607
Rp2608
sg17
g18
(S'\x07\xe1\x02\x0c'
p2609
tp2610
Rp2611
ssI1219765
(dp2612
g2
g3
((lp2613
S'Repeat Borrower'
p2614
ag977
ag25
ag210
ag198
atp2615
Rp2616
sg12
g13
(S'\x07\xe1\x01\x0f\x0b\x168\x00\x9cA'
p2617
tp2618
Rp2619
sg17
g18
(S'\x07\xe1\x02\x0c'
p2620
tp2621
Rp2622
ssI1217719
(dp2623
g2
g3
((lp2624
g223
aS'Parent'
p2625
ag1293
aS'Elderly'
p2626
ag54
aS'Woman Owned Biz'
p2627
ag8
atp2628
Rp2629
sg12
g13
(S'\x07\xe1\x01\x0f\x0b\x168\x00\x95\x12'
p2630
tp2631
Rp2632
sg17
g18
(S'\x07\xe1\x02\x0c'
p2633
tp2634
Rp2635
ssI1219776
(dp2636
g2
g3
((lp2637
g54
ag25
ag210
aS'Parent'
p2638
ag198
atp2639
Rp2640
sg12
g13
(S'\x07\xe1\x01\x0f\x0b\x168\x00\x9bB'
p2641
tp2642
Rp2643
sg17
g18
(S'\x07\xe1\x02\x0c'
p2644
tp2645
Rp2646
ssI1219780
(dp2647
g2
g3
((lp2648
S'Parent'
p2649
ag25
aS'Vegan'
p2650
ag210
ag28
ag198
atp2651
Rp2652
sg12
g13
(S'\x07\xe1\x01\x0f\x0b\x168\x00\x9a?'
p2653
tp2654
Rp2655
sg17
g18
(S'\x07\xe1\x02\x0c'
p2656
tp2657
Rp2658
ssI1219790
(dp2659
g2
g3
((lp2660
g491
ag52
aS'Parent'
p2661
ag54
ag285
ag495
aS'Single Parent'
p2662
aS'Repeat Borrower'
p2663
atp2664
Rp2665
sg12
g13
(S'\x07\xe1\x01\x0f\x0b\x168\x00\x9a\xc0'
p2666
tp2667
Rp2668
sg17
g18
(S'\x07\xe1\x02\x0c'
p2669
tp2670
Rp2671
ssI1219793
(dp2672
g2
g3
((lp2673
g286
ag28
aS'Animals'
p2674
ag109
aS'Parent'
p2675
atp2676
Rp2677
sg12
g13
(S'\x07\xe1\x01\x0f\x0b\x168\x00\x9a\xf4'
p2678
tp2679
Rp2680
sg17
g18
(S'\x07\xe1\x02\x0c'
p2681
tp2682
Rp2683
ssI1219796
(dp2684
g2
g3
((lp2685
S'Parent'
p2686
ag54
ag260
ag109
aS'Woman Owned Biz'
p2687
aS'Repair Renew Replace'
p2688
atp2689
Rp2690
sg12
g13
(S'\x07\xe1\x01\x0f\x0b\x168\x00\x9ar'
p2691
tp2692
Rp2693
sg17
g18
(S'\x07\xe1\x02\x0c'
p2694
tp2695
Rp2696
ssI1219798
(dp2697
g408
g3
((lp2698
S'India'
p2699
ag595
ag411
ag412
aS'Underfunded Areas'
p2700
atp2701
Rp2702
sg415
g18
(S'\x07\xe1\x02\x0c'
p2703
tp2704
Rp2705
ssI1219802
(dp2706
g1840
g3
((lp2707
S'Unknown'
p2708
aS'Elderly'
p2709
aS'Timor-Leste'
p2710
aS'Woman Owned Biz'
p2711
aS'Repeat Borrower'
p2712
aS'Education'
p2713
atp2714
Rp2715
sg1850
g18
(S'\x07\xe1\x02\x0c'
p2716
tp2717
Rp2718
ssI1219806
(dp2719
g2
g3
((lp2720
g82
aS'Woman Owned Biz'
p2721
ag977
ag1582
ag111
atp2722
Rp2723
sg12
g13
(S'\x07\xe1\x01\x0f\x0b\x168\x00\x99\xa3'
p2724
tp2725
Rp2726
sg17
g18
(S'\x07\xe1\x02\x0c'
p2727
tp2728
Rp2729
ssI1219807
(dp2730
g38
g3
((lp2731
g183
ag1547
ag2409
ag175
ag483
atp2732
Rp2733
sg46
g18
(S'\x07\xe1\x02\x0c'
p2734
tp2735
Rp2736
ssI1219810
(dp2737
g2
g3
((lp2738
g108
aS'Biz Durable Asset'
p2739
ag109
aS'Elderly'
p2740
ag111
ag345
aS'Fabrics'
p2741
atp2742
Rp2743
sg12
g13
(S'\x07\xe1\x01\x0f\x0b\x168\x00\x96z'
p2744
tp2745
Rp2746
sg17
g18
(S'\x07\xe1\x02\x0c'
p2747
tp2748
Rp2749
ssI1219813
(dp2750
g2
g3
((lp2751
g82
aS'Woman Owned Biz'
p2752
ag977
ag1582
ag111
atp2753
Rp2754
sg12
g13
(S'\x07\xe1\x01\x0f\x0b\x168\x00\x99\xbd'
p2755
tp2756
Rp2757
sg17
g18
(S'\x07\xe1\x02\x0c'
p2758
tp2759
Rp2760
ssI1219816
(dp2761
g38
g3
((lp2762
g480
ag481
ag482
aS'Personal Use'
p2763
atp2764
Rp2765
sg46
g18
(S'\x07\xe1\x02\x0c'
p2766
tp2767
Rp2768
ssI1219820
(dp2769
g2
g3
((lp2770
g108
aS'Parent'
p2771
aS'Biz Durable Asset'
p2772
ag109
ag111
ag345
aS'Woman Owned Biz'
p2773
aS'Technology'
p2774
aS'Fabrics'
p2775
atp2776
Rp2777
sg12
g13
(S'\x07\xe1\x01\x0f\x0b\x168\x00\x98\x8e'
p2778
tp2779
Rp2780
sg17
g18
(S'\x07\xe1\x02\x0c'
p2781
tp2782
Rp2783
ssI1219821
(dp2784
g2
g3
((lp2785
g82
aS'Woman Owned Biz'
p2786
ag977
ag1582
ag111
atp2787
Rp2788
sg12
g13
(S'\x07\xe1\x01\x0f\x0b\x168\x00\x94S'
p2789
tp2790
Rp2791
sg17
g18
(S'\x07\xe1\x02\x0c'
p2792
tp2793
Rp2794
ssI1219822
(dp2795
g695
g3
((lp2796
S'India'
p2797
ag699
ag1018
aS'Woman Owned Biz'
p2798
ag698
ag781
atp2799
Rp2800
sg703
g18
(S'\x07\xe1\x02\x0c'
p2801
tp2802
Rp2803
ssI1219823
(dp2804
g2
g3
((lp2805
g491
ag54
aS'Animals'
p2806
ag52
ag495
atp2807
Rp2808
sg12
g13
(S'\x07\xe1\x01\x0f\x0b\x168\x00\x8d\xcd'
p2809
tp2810
Rp2811
sg17
g18
(S'\x07\xe1\x02\r'
p2812
tp2813
Rp2814
ssI1219825
(dp2815
g2
g3
((lp2816
S'Woman Owned Biz'
p2817
ag977
ag25
ag210
atp2818
Rp2819
sg12
g13
(S'\x07\xe1\x01\x0f\x0b\x168\x00\x93\xaa'
p2820
tp2821
Rp2822
sg17
g18
(S'\x07\xe1\x02\r'
p2823
tp2824
Rp2825
ssI1219826
(dp2826
g1840
g3
((lp2827
S'India'
p2828
aS'Elderly'
p2829
ag1845
aS'Underfunded Areas'
p2830
aS'Woman Owned Biz'
p2831
aS'Repeat Borrower'
p2832
aS'Agriculture'
p2833
aS'Rural Exclusion'
p2834
atp2835
Rp2836
sg1850
g18
(S'\x07\xe1\x02\x0c'
p2837
tp2838
Rp2839
ssI1219827
(dp2840
g408
g3
((lp2841
g2699
ag595
ag411
ag412
ag2700
atp2842
Rp2843
sg415
g18
(S'\x07\xe1\x02\x0c'
p2844
tp2845
Rp2846
ssI1219828
(dp2847
g2
g3
((lp2848
g977
ag25
ag210
aS'Parent'
p2849
ag198
atp2850
Rp2851
sg12
g13
(S'\x07\xe1\x01\x0f\x0b\x168\x00\x97;'
p2852
tp2853
Rp2854
sg17
g18
(S'\x07\xe1\x02\x0c'
p2855
tp2856
Rp2857
ssI1219834
(dp2858
g2
g3
((lp2859
g54
ag24
aS'Repeat Borrower'
p2860
ag25
aS'Woman Owned Biz'
p2861
atp2862
Rp2863
sg12
g13
(S'\x07\xe1\x01\x0f\x0b\x168\x00\x96%'
p2864
tp2865
Rp2866
sg17
g18
(S'\x07\xe1\x02\x0c'
p2867
tp2868
Rp2869
ssI1219837
(dp2870
g382
g3
((lp2871
S'Unknown'
p2872
aS'Timor-Leste'
p2873
aS'Eco-friendly'
p2874
ag1731
aS'Underfunded Areas'
p2875
atp2876
Rp2877
sg392
g18
(S'\x07\xe1\x02\r'
p2878
tp2879
Rp2880
ssI1219838
(dp2881
g38
g3
((lp2882
g480
ag481
ag482
ag2763
atp2883
Rp2884
sg46
g18
(S'\x07\xe1\x02\r'
p2885
tp2886
Rp2887
ssI1219839
(dp2888
g695
g3
((lp2889
g1520
ag778
ag780
aS'Woman Owned Biz'
p2890
atp2891
Rp2892
sg703
g18
(S'\x07\xe1\x02\r'
p2893
tp2894
Rp2895
ssI1219840
(dp2896
g2
g3
((lp2897
g491
ag28
aS'Animals'
p2898
ag495
ag111
atp2899
Rp2900
sg12
g13
(S'\x07\xe1\x01\x0f\x0b\x168\x00\x81\xc8'
p2901
tp2902
Rp2903
sg17
g18
(S'\x07\xe1\x02\r'
p2904
tp2905
Rp2906
ssI1219841
(dp2907
g695
g3
((lp2908
S'Woman Owned Biz'
p2909
aS'Philippines'
p2910
ag947
ag699
atp2911
Rp2912
sg703
g18
(S'\x07\xe1\x02\r'
p2913
tp2914
Rp2915
ssI1219842
(dp2916
g38
g3
((lp2917
g2408
ag482
aS'Uganda'
p2918
atp2919
Rp2920
sg46
g18
(S'\x07\xe1\x02\r'
p2921
tp2922
Rp2923
ssI1219843
(dp2924
g695
g3
((lp2925
g2797
ag699
ag1018
aS'Woman Owned Biz'
p2926
ag698
ag781
atp2927
Rp2928
sg703
g18
(S'\x07\xe1\x02\x0e'
p2929
tp2930
Rp2931
ssI1219844
(dp2932
g2
g3
((lp2933
g345
ag108
ag109
aS'Parent'
p2934
ag111
atp2935
Rp2936
sg12
g13
(S'\x07\xe1\x01\x0f\x0b\x168\x00{\xe6'
p2937
tp2938
Rp2939
sg17
g18
(S'\x07\xe1\x02\x0e'
p2940
tp2941
Rp2942
ssI1219845
(dp2943
g38
g3
((lp2944
g480
ag481
ag482
ag2763
atp2945
Rp2946
sg46
g18
(S'\x07\xe1\x02\r'
p2947
tp2948
Rp2949
ssI1219846
(dp2950
g2
g3
((lp2951
g491
aS'Widowed'
p2952
aS'Vegan'
p2953
aS'Trees'
p2954
ag495
aS'Woman Owned Biz'
p2955
ag28
aS'Eco-friendly'
p2956
atp2957
Rp2958
sg12
g13
(S'\x07\xe1\x01\x0f\x0b\x168\x00\x96\x10'
p2959
tp2960
Rp2961
sg17
g18
(S'\x07\xe1\x02\x0c'
p2962
tp2963
Rp2964
ssI1219849
(dp2965
g2
g3
((lp2966
g223
aS'Parent'
p2967
ag224
ag109
ag225
aS'Repair Renew Replace'
p2968
ag198
atp2969
Rp2970
sg12
g13
(S'\x07\xe1\x01\x0f\x0b\x168\x00\x94\xd2'
p2971
tp2972
Rp2973
sg17
g18
(S'\x07\xe1\x02\x0c'
p2974
tp2975
Rp2976
ssI1219853
(dp2977
g1840
g3
((lp2978
S'Transportation'
p2979
aS'Africa'
p2980
aS'Elderly'
p2981
aS'Woman Owned Biz'
p2982
aS'Kenya'
p2983
aS'Repeat Borrower'
p2984
atp2985
Rp2986
sg1850
g18
(S'\x07\xe1\x02\x0c'
p2987
tp2988
Rp2989
ssI1219855
(dp2990
g2
g3
((lp2991
g54
ag260
ag109
aS'Elderly'
p2992
atp2993
Rp2994
sg12
g13
(S'\x07\xe1\x01\x0f\x0b\x168\x00\x94\xbd'
p2995
tp2996
Rp2997
sg17
g18
(S'\x07\xe1\x02\x0c'
p2998
tp2999
Rp3000
ssI1219858
(dp3001
g2
g3
((lp3002
S'Job Creator'
p3003
ag223
aS'Parent'
p3004
aS'Schooling'
p3005
aS'Vegan'
p3006
ag109
aS'Woman Owned Biz'
p3007
ag225
ag28
ag198
atp3008
Rp3009
sg12
g13
(S"\x07\xe1\x01\x0f\x0b\x168\x00\x92'"
p3010
tp3011
Rp3012
sg17
g18
(S'\x07\xe1\x02\r'
p3013
tp3014
Rp3015
ssI1219862
(dp3016
g2
g3
((lp3017
S'Job Creator'
p3018
ag223
aS'Parent'
p3019
aS'Schooling'
p3020
aS'Vegan'
p3021
ag109
ag225
ag28
ag198
atp3022
Rp3023
sg12
g13
(S'\x07\xe1\x01\x0f\x0b\x168\x00\x92='
p3024
tp3025
Rp3026
sg17
g18
(S'\x07\xe1\x02\r'
p3027
tp3028
Rp3029
ssI1219865
(dp3030
g2
g3
((lp3031
g223
aS'Parent'
p3032
aS'Health and Sanitation'
p3033
aS'Biz Durable Asset'
p3034
aS'Schooling'
p3035
ag109
ag225
ag28
ag198
atp3036
Rp3037
sg12
g13
(S'\x07\xe1\x01\x0f\x0b\x168\x00\x91S'
p3038
tp3039
Rp3040
sg17
g18
(S'\x07\xe1\x02\r'
p3041
tp3042
Rp3043
ssI1219867
(dp3044
g382
g3
((lp3045
g384
ag385
aS'Eco-friendly'
p3046
ag387
ag1731
ag389
atp3047
Rp3048
sg392
g18
(S'\x07\xe1\x02\r'
p3049
tp3050
Rp3051
ssI1219870
(dp3052
g2
g3
((lp3053
g54
ag260
ag109
aS'Elderly'
p3054
atp3055
Rp3056
sg12
g13
(S'\x07\xe1\x01\x0f\x0b\x168\x00\x94\x14'
p3057
tp3058
Rp3059
sg17
g18
(S'\x07\xe1\x02\x0c'
p3060
tp3061
Rp3062
ssI1219871
(dp3063
g2
g3
((lp3064
S'Parent'
p3065
ag25
ag210
aS'Woman Owned Biz'
p3066
ag345
aS'Single Parent'
p3067
atp3068
Rp3069
sg12
g13
(S'\x07\xe1\x01\x0f\x0b\x168\x00\x93j'
p3070
tp3071
Rp3072
sg17
g18
(S'\x07\xe1\x02\r'
p3073
tp3074
Rp3075
ssI1219872
(dp3076
g2
g3
((lp3077
S'Widowed'
p3078
ag223
aS'Parent'
p3079
ag54
ag109
ag225
aS'Single Parent'
p3080
ag198
atp3081
Rp3082
sg12
g13
(S'\x07\xe1\x01\x0f\x0b\x168\x00\x93?'
p3083
tp3084
Rp3085
sg17
g18
(S'\x07\xe1\x02\r'
p3086
tp3087
Rp3088
ssI1219874
(dp3089
g2
g3
((lp3090
S'Widowed'
p3091
ag223
aS'Parent'
p3092
aS'Biz Durable Asset'
p3093
ag1608
ag109
ag225
aS'Woman Owned Biz'
p3094
ag198
atp3095
Rp3096
sg12
g13
(S'\x07\xe1\x01\x0f\x0b\x168\x00\x92\xd3'
p3097
tp3098
Rp3099
sg17
g18
(S'\x07\xe1\x02\r'
p3100
tp3101
Rp3102
ssI1219877
(dp3103
g1840
g3
((lp3104
S'Vulnerable Groups'
p3105
ag1842
aS'Elderly'
p3106
ag1845
aS'Woman Owned Biz'
p3107
aS'Repeat Borrower'
p3108
ag2833
ag2834
atp3109
Rp3110
sg1850
g18
(S'\x07\xe1\x02\r'
p3111
tp3112
Rp3113
ssI1219878
(dp3114
g695
g3
((lp3115
g778
ag947
ag780
aS'Woman Owned Biz'
p3116
atp3117
Rp3118
sg703
g18
(S'\x07\xe1\x02\r'
p3119
tp3120
Rp3121
ssI1219881
(dp3122
g2
g3
((lp3123
S'Parent'
p3124
ag54
ag285
ag25
aS'Schooling'
p3125
aS'Malawi'
p3126
atp3127
Rp3128
sg12
g13
(S'\x07\xe1\x01\x0f\x0b\x168\x00\x92g'
p3129
tp3130
Rp3131
sg17
g18
(S'\x07\xe1\x02\r'
p3132
tp3133
Rp3134
ssI1219883
(dp3135
g695
g3
((lp3136
g1520
aS'Woman Owned Biz'
p3137
aS'Start-Up'
p3138
ag780
aS'Malawi'
p3139
atp3140
Rp3141
sg703
g18
(S'\x07\xe1\x02\r'
p3142
tp3143
Rp3144
ssI1219886
(dp3145
g2
g3
((lp3146
g260
ag358
ag109
aS'Elderly'
p3147
atp3148
Rp3149
sg12
g13
(S'\x07\xe1\x01\x0f\x0b\x168\x00\x91\xfd'
p3150
tp3151
Rp3152
sg17
g18
(S'\x07\xe1\x02\r'
p3153
tp3154
Rp3155
ssI1219890
(dp3156
g2
g3
((lp3157
g52
ag260
ag109
aS'Elderly'
p3158
aS'Repair Renew Replace'
p3159
ag224
atp3160
Rp3161
sg12
g13
(S'\x07\xe1\x01\x0f\x0b\x168\x00\x92\x11'
p3162
tp3163
Rp3164
sg17
g18
(S'\x07\xe1\x02\r'
p3165
tp3166
Rp3167
ssI1219891
(dp3168
g1840
g3
((lp3169
S'Philippines'
p3170
aS'Elderly'
p3171
ag1845
aS'Woman Owned Biz'
p3172
aS'Repeat Borrower'
p3173
ag2833
atp3174
Rp3175
sg1850
g18
(S'\x07\xe1\x02\r'
p3176
tp3177
Rp3178
ssI1219892
(dp3179
g2
g3
((lp3180
g54
aS'Woman Owned Biz'
p3181
ag260
ag109
aS'Elderly'
p3182
atp3183
Rp3184
sg12
g13
(S'\x07\xe1\x01\x0f\x0b\x168\x00\x90\xa5'
p3185
tp3186
Rp3187
sg17
g18
(S'\x07\xe1\x02\r'
p3188
tp3189
Rp3190
ssI1219894
(dp3191
g2
g3
((lp3192
g54
aS'Woman Owned Biz'
p3193
ag260
ag109
atp3194
Rp3195
sg12
g13
(S'\x07\xe1\x01\x0f\x0b\x168\x00\x91\xe8'
p3196
tp3197
Rp3198
sg17
g18
(S'\x07\xe1\x02\r'
p3199
tp3200
Rp3201
ssI1219895
(dp3202
g2
g3
((lp3203
g260
aS'Biz Durable Asset'
p3204
ag6
ag109
aS'Parent'
p3205
atp3206
Rp3207
sg12
g13
(S'\x07\xe1\x01\x0f\x0b\x168\x00\x91\xd3'
p3208
tp3209
Rp3210
sg17
g18
(S'\x07\xe1\x02\r'
p3211
tp3212
Rp3213
ssI1219898
(dp3214
g2
g3
((lp3215
S'Woman Owned Biz'
p3216
ag260
ag977
ag109
aS'Elderly'
p3217
atp3218
Rp3219
sg12
g13
(S'\x07\xe1\x01\x0f\x0b\x168\x00\x91\xa9'
p3220
tp3221
Rp3222
sg17
g18
(S'\x07\xe1\x02\r'
p3223
tp3224
Rp3225
ssI1205565
(dp3226
g2
g3
((lp3227
g108
aS'Parent'
p3228
ag109
ag111
ag345
aS'Fabrics'
p3229
atp3230
Rp3231
sg12
g13
(S'\x07\xe1\x01\x0f\x0b\x168\x00\x93*'
p3232
tp3233
Rp3234
sg17
g18
(S'\x07\xe1\x02\r'
p3235
tp3236
Rp3237
ssI1219904
(dp3238
g38
g3
((lp3239
g183
ag1547
ag2409
ag175
ag483
atp3240
Rp3241
sg46
g18
(S'\x07\xe1\x02\r'
p3242
tp3243
Rp3244
ssI1219908
(dp3245
g408
g3
((lp3246
S'Cambodia'
p3247
ag411
ag665
ag412
ag595
atp3248
Rp3249
sg415
g18
(S'\x07\xe1\x02\r'
p3250
tp3251
Rp3252
ssI1219909
(dp3253
g2
g3
((lp3254
g260
ag977
ag109
aS'Elderly'
p3255
atp3256
Rp3257
sg12
g13
(S'\x07\xe1\x01\x0f\x0b\x168\x00\x90\xfd'
p3258
tp3259
Rp3260
sg17
g18
(S'\x07\xe1\x02\r'
p3261
tp3262
Rp3263
ssI1219910
(dp3264
g2
g3
((lp3265
g260
ag109
ag224
aS'Elderly'
p3266
atp3267
Rp3268
sg12
g13
(S'\x07\xe1\x01\x0f\x0b\x168\x00\x91\x12'
p3269
tp3270
Rp3271
sg17
g18
(S'\x07\xe1\x02\r'
p3272
tp3273
Rp3274
ssI1219912
(dp3275
g2
g3
((lp3276
S'Woman Owned Biz'
p3277
ag260
ag977
ag109
aS'Parent'
p3278
atp3279
Rp3280
sg12
g13
(S'\x07\xe1\x01\x0f\x0b\x168\x00\x90\xe4'
p3281
tp3282
Rp3283
sg17
g18
(S'\x07\xe1\x02\r'
p3284
tp3285
Rp3286
ssI1219913
(dp3287
g408
g3
((lp3288
S'Philippines'
p3289
aS'Manufacturing'
p3290
ag412
atp3291
Rp3292
sg415
g18
(S'\x07\xe1\x02\r'
p3293
tp3294
Rp3295
ssI1219916
(dp3296
g2
g3
((lp3297
g223
aS'Parent'
p3298
ag109
ag225
ag28
ag198
atp3299
Rp3300
sg12
g13
(S'\x07\xe1\x01\x0f\x0b\x168\x00\x90\x8f'
p3301
tp3302
Rp3303
sg17
g18
(S'\x07\xe1\x02\r'
p3304
tp3305
Rp3306
ssI1219921
(dp3307
g695
g3
((lp3308
g949
ag1792
ag699
aS'Woman Owned Biz'
p3309
ag698
ag781
atp3310
Rp3311
sg703
g18
(S'\x07\xe1\x02\r'
p3312
tp3313
Rp3314
ssI1219924
(dp3315
g519
g3
((lp3316
S'Vulnerable Groups'
p3317
ag521
aS'Cambodia'
p3318
ag574
aS'Repeat Borrower'
p3319
aS'Rural Exclusion'
p3320
atp3321
Rp3322
sg527
g18
(S'\x07\xe1\x02\r'
p3323
tp3324
Rp3325
ssI1219926
(dp3326
g2
g3
((lp3327
S'Woman Owned Biz'
p3328
ag260
ag977
ag109
aS'Elderly'
p3329
atp3330
Rp3331
sg12
g13
(S'\x07\xe1\x01\x0f\x0b\x168\x00\x90P'
p3332
tp3333
Rp3334
sg17
g18
(S'\x07\xe1\x02\r'
p3335
tp3336
Rp3337
ssI1219929
(dp3338
g695
g3
((lp3339
g2797
ag699
ag1018
aS'Woman Owned Biz'
p3340
ag698
ag781
atp3341
Rp3342
sg703
g18
(S'\x07\xe1\x02\r'
p3343
tp3344
Rp3345
ssI1219930
(dp3346
g2
g3
((lp3347
S'Elderly'
p3348
ag223
ag224
ag109
ag225
ag198
atp3349
Rp3350
sg12
g13
(S'\x07\xe1\x01\x0f\x0b\x168\x00\x8f\xba'
p3351
tp3352
Rp3353
sg17
g18
(S'\x07\xe1\x02\r'
p3354
tp3355
Rp3356
ssI1219932
(dp3357
g2
g3
((lp3358
S'Widowed'
p3359
ag223
ag225
ag109
ag28
ag198
atp3360
Rp3361
sg12
g13
(S'\x07\xe1\x01\x0f\x0b\x168\x00\x8f\xa5'
p3362
tp3363
Rp3364
sg17
g18
(S'\x07\xe1\x02\r'
p3365
tp3366
Rp3367
ssI1219936
(dp3368
g2
g3
((lp3369
S'Elderly'
p3370
ag223
ag52
ag109
ag225
ag28
ag198
atp3371
Rp3372
sg12
g13
(S'\x07\xe1\x01\x0f\x0b\x168\x00\x8f;'
p3373
tp3374
Rp3375
sg17
g18
(S'\x07\xe1\x02\r'
p3376
tp3377
Rp3378
ssI1219938
(dp3379
g408
g3
((lp3380
g593
aS'Retail'
p3381
ag594
atp3382
Rp3383
sg415
g18
(S'\x07\xe1\x02\r'
p3384
tp3385
Rp3386
ssI1219939
(dp3387
g2
g3
((lp3388
g52
aS'Parent'
p3389
aS'India'
p3390
ag109
ag111
aS'Woman Owned Biz'
p3391
ag333
aS'Fabrics'
p3392
ag198
atp3393
Rp3394
sg12
g13
(S'\x07\xe1\x01\x0f\x0b\x168\x00\x8fe'
p3395
tp3396
Rp3397
sg17
g18
(S'\x07\xe1\x02\r'
p3398
tp3399
Rp3400
ssI1219940
(dp3401
g2
g3
((lp3402
g223
aS'Parent'
p3403
ag109
aS'Vegan'
p3404
ag225
ag28
ag198
atp3405
Rp3406
sg12
g13
(S'\x07\xe1\x01\x0f\x0b\x168\x00\x8f{'
p3407
tp3408
Rp3409
sg17
g18
(S'\x07\xe1\x02\r'
p3410
tp3411
Rp3412
ssI1219941
(dp3413
g2
g3
((lp3414
S'Widowed'
p3415
ag223
ag225
ag109
ag28
ag198
atp3416
Rp3417
sg12
g13
(S'\x07\xe1\x01\x0f\x0b\x168\x00\x8f\x90'
p3418
tp3419
Rp3420
sg17
g18
(S'\x07\xe1\x02\r'
p3421
tp3422
Rp3423
ssI1219943
(dp3424
g2
g3
((lp3425
S'Job Creator'
p3426
ag223
aS'Parent'
p3427
aS'Schooling'
p3428
ag109
ag225
aS'Woman Owned Biz'
p3429
ag28
ag198
atp3430
Rp3431
sg12
g13
(S'\x07\xe1\x01\x0f\x0b\x168\x00\x8f\x0f'
p3432
tp3433
Rp3434
sg17
g18
(S'\x07\xe1\x02\r'
p3435
tp3436
Rp3437
ssI1219945
(dp3438
g2
g3
((lp3439
S'Job Creator'
p3440
aS'Vegan'
p3441
ag223
aS'Schooling'
p3442
ag109
ag225
ag28
ag198
atp3443
Rp3444
sg12
g13
(S'\x07\xe1\x01\x0f\x0b\x168\x00\x89q'
p3445
tp3446
Rp3447
sg17
g18
(S'\x07\xe1\x02\r'
p3448
tp3449
Rp3450
ssI1219946
(dp3451
g2
g3
((lp3452
g52
ag54
aS'Biz Durable Asset'
p3453
ag650
ag109
aS'Elderly'
p3454
aS'Refugees\\/Displaced'
p3455
aS'Repeat Borrower'
p3456
aS'Repair Renew Replace'
p3457
ag223
atp3458
Rp3459
sg12
g13
(S'\x07\xe1\x01\x0f\x0b\x168\x00\x89"'
p3460
tp3461
Rp3462
sg17
g18
(S'\x07\xe1\x02\r'
p3463
tp3464
Rp3465
ssI1203563
(dp3466
g2
g3
((lp3467
S'Parent'
p3468
ag25
aS'Schooling'
p3469
aS'Vegan'
p3470
ag195
ag196
aS'Repeat Borrower'
p3471
ag198
atp3472
Rp3473
sg12
g13
(S'\x07\xe1\x01\x0f\x0b\x168\x00\x97z'
p3474
tp3475
Rp3476
sg17
g18
(S'\x07\xe1\x02\x0c'
p3477
tp3478
Rp3479
ssI1219948
(dp3480
g2
g3
((lp3481
S'Elderly'
p3482
aS'Job Creator'
p3483
ag223
aS'Vegan'
p3484
ag225
ag109
ag28
ag198
atp3485
Rp3486
sg12
g13
(S'\x07\xe1\x01\x0f\x0b\x168\x00\x89\x8b'
p3487
tp3488
Rp3489
sg17
g18
(S'\x07\xe1\x02\r'
p3490
tp3491
Rp3492
ssI1219949
(dp3493
g408
g3
((lp3494
g3247
ag411
ag665
ag412
ag595
atp3495
Rp3496
sg415
g18
(S'\x07\xe1\x02\r'
p3497
tp3498
Rp3499
ssI1219951
(dp3500
g2
g3
((lp3501
g54
ag359
ag25
aS'Parent'
p3502
atp3503
Rp3504
sg12
g13
(S'\x07\xe1\x01\x0f\x0b\x168\x00|\xe7'
p3505
tp3506
Rp3507
sg17
g18
(S'\x07\xe1\x02\x0e'
p3508
tp3509
Rp3510
ssI1219954
(dp3511
g695
g3
((lp3512
g1520
aS'Woman Owned Biz'
p3513
ag2910
ag699
atp3514
Rp3515
sg703
g18
(S'\x07\xe1\x02\r'
p3516
tp3517
Rp3518
ssI1219955
(dp3519
g2
g3
((lp3520
g54
ag24
ag25
aS'Parent'
p3521
atp3522
Rp3523
sg12
g13
(S'\x07\xe1\x01\x0f\x0b\x168\x00\x8d\x83'
p3524
tp3525
Rp3526
sg17
g18
(S'\x07\xe1\x02\r'
p3527
tp3528
Rp3529
ssI1219960
(dp3530
g2
g3
((lp3531
g108
ag2547
ag109
aS'Elderly'
p3532
ag111
aS'Woman Owned Biz'
p3533
aS'Fabrics'
p3534
atp3535
Rp3536
sg12
g13
(S'\x07\xe1\x01\x0f\x0b\x168\x00\x89\x08'
p3537
tp3538
Rp3539
sg17
g18
(S'\x07\xe1\x02\r'
p3540
tp3541
Rp3542
ssI1219961
(dp3543
g2
g3
((lp3544
g108
aS'Parent'
p3545
ag109
ag111
aS'Woman Owned Biz'
p3546
ag333
atp3547
Rp3548
sg12
g13
(S'\x07\xe1\x01\x0f\x0b\x168\x00\x88\x0b'
p3549
tp3550
Rp3551
sg17
g18
(S'\x07\xe1\x02\r'
p3552
tp3553
Rp3554
ssI1219962
(dp3555
g695
g3
((lp3556
g968
aS'Pakistan'
p3557
aS'Woman Owned Biz'
p3558
ag699
ag1018
atp3559
Rp3560
sg703
g18
(S'\x07\xe1\x02\r'
p3561
tp3562
Rp3563
ssI1219963
(dp3564
g2
g3
((lp3565
g108
aS'Manufacturing'
p3566
ag52
ag109
ag111
atp3567
Rp3568
sg12
g13
(S'\x07\xe1\x01\x0f\x0b\x168\x00\x86M'
p3569
tp3570
Rp3571
sg17
g18
(S'\x07\xe1\x02\r'
p3572
tp3573
Rp3574
ssI1219964
(dp3575
g2
g3
((lp3576
g108
aS'Biz Durable Asset'
p3577
ag109
ag111
ag345
aS'Fabrics'
p3578
atp3579
Rp3580
sg12
g13
(S'\x07\xe1\x01\x0f\x0b\x168\x00\x85\xa0'
p3581
tp3582
Rp3583
sg17
g18
(S'\x07\xe1\x02\r'
p3584
tp3585
Rp3586
ssI1219965
(dp3587
g2
g3
((lp3588
g108
ag109
aS'Elderly'
p3589
ag111
ag345
aS'Fabrics'
p3590
atp3591
Rp3592
sg12
g13
(S'\x07\xe1\x01\x0f\x0b\x168\x00\x8cw'
p3593
tp3594
Rp3595
sg17
g18
(S'\x07\xe1\x02\r'
p3596
tp3597
Rp3598
ssI1219966
(dp3599
g2
g3
((lp3600
g108
aS'Biz Durable Asset'
p3601
ag109
ag111
ag345
aS'Fabrics'
p3602
atp3603
Rp3604
sg12
g13
(S'\x07\xe1\x01\x0f\x0b\x168\x00\x8c\x91'
p3605
tp3606
Rp3607
sg17
g18
(S'\x07\xe1\x02\r'
p3608
tp3609
Rp3610
ssI1219967
(dp3611
g2
g3
((lp3612
S'Health and Sanitation'
p3613
ag109
ag740
aS'Elderly'
p3614
ag286
ag198
atp3615
Rp3616
sg12
g13
(S'\x07\xe1\x01\x0f\x0b\x168\x00\x8fP'
p3617
tp3618
Rp3619
sg17
g18
(S'\x07\xe1\x02\r'
p3620
tp3621
Rp3622
ssI1219969
(dp3623
g2
g3
((lp3624
g491
ag6
aS'Parent'
p3625
ag285
ag495
aS'Repair Renew Replace'
p3626
atp3627
Rp3628
sg12
g13
(S'\x07\xe1\x01\x0f\x0b\x168\x00\x8f%'
p3629
tp3630
Rp3631
sg17
g18
(S'\x07\xe1\x02\r'
p3632
tp3633
Rp3634
ssI1219970
(dp3635
g2
g3
((lp3636
g54
aS'Woman Owned Biz'
p3637
ag359
ag25
aS'Parent'
p3638
atp3639
Rp3640
sg12
g13
(S'\x07\xe1\x01\x0f\x0b\x168\x00}\x04'
p3641
tp3642
Rp3643
sg17
g18
(S'\x07\xe1\x02\x0e'
p3644
tp3645
Rp3646
ssI1219973
(dp3647
g2
g3
((lp3648
g52
aS'Parent'
p3649
ag54
aS'Biz Durable Asset'
p3650
ag25
ag210
atp3651
Rp3652
sg12
g13
(S'\x07\xe1\x01\x0f\x0b\x168\x00\x8c\xab'
p3653
tp3654
Rp3655
sg17
g18
(S'\x07\xe1\x02\r'
p3656
tp3657
Rp3658
ssI1219977
(dp3659
g2
g3
((lp3660
g637
ag52
aS'Schooling'
p3661
ag109
aS'Repeat Borrower'
p3662
ag196
ag286
atp3663
Rp3664
sg12
g13
(S'\x07\xe1\x01\x0f\x0b\x168\x00\x87\x8f'
p3665
tp3666
Rp3667
sg17
g18
(S'\x07\xe1\x02\r'
p3668
tp3669
Rp3670
ssI1219978
(dp3671
g2
g3
((lp3672
g108
ag109
ag345
aS'Woman Owned Biz'
p3673
aS'Fabrics'
p3674
ag198
atp3675
Rp3676
sg12
g13
(S'\x07\xe1\x01\x0f\x0b\x168\x00\x87\xf6'
p3677
tp3678
Rp3679
sg17
g18
(S'\x07\xe1\x02\r'
p3680
tp3681
Rp3682
ssI1219981
(dp3683
g2
g3
((lp3684
g108
aS'Parent'
p3685
ag54
ag109
ag111
aS'Woman Owned Biz'
p3686
aS'Repeat Borrower'
p3687
atp3688
Rp3689
sg12
g13
(S'\x07\xe1\x01\x0f\x0b\x168\x00\x8e#'
p3690
tp3691
Rp3692
sg17
g18
(S'\x07\xe1\x02\r'
p3693
tp3694
Rp3695
ssI1219983
(dp3696
g2
g3
((lp3697
g345
ag108
ag109
aS'Elderly'
p3698
ag198
atp3699
Rp3700
sg12
g13
(S'\x07\xe1\x01\x0f\x0b\x168\x00\x8d\xf8'
p3701
tp3702
Rp3703
sg17
g18
(S'\x07\xe1\x02\r'
p3704
tp3705
Rp3706
ssI1219984
(dp3707
g2
g3
((lp3708
g25
aS'Schooling'
p3709
aS'Vegan'
p3710
ag195
ag196
ag198
atp3711
Rp3712
sg12
g13
(S'\x07\xe1\x01\x0f\x0b\x168\x00\x8e\r'
p3713
tp3714
Rp3715
sg17
g18
(S'\x07\xe1\x02\r'
p3716
tp3717
Rp3718
ssI1219985
(dp3719
g2
g3
((lp3720
g108
ag740
ag109
aS'Health and Sanitation'
p3721
ag198
atp3722
Rp3723
sg12
g13
(S'\x07\xe1\x01\x0f\x0b\x168\x00\x8d\xb7'
p3724
tp3725
Rp3726
sg17
g18
(S'\x07\xe1\x02\r'
p3727
tp3728
Rp3729
ssI1219986
(dp3730
g2
g3
((lp3731
g108
ag2547
ag52
ag109
aS'Elderly'
p3732
ag111
aS'Fabrics'
p3733
atp3734
Rp3735
sg12
g13
(S'\x07\xe1\x01\x0f\x0b\x168\x00\x8c\xc5'
p3736
tp3737
Rp3738
sg17
g18
(S'\x07\xe1\x02\r'
p3739
tp3740
Rp3741
ssI1219987
(dp3742
g2
g3
((lp3743
g491
ag28
aS'Animals'
p3744
ag495
aS'Elderly'
p3745
atp3746
Rp3747
sg12
g13
(S'\x07\xe1\x01\x0f\x0b\x168\x00\x8c\x11'
p3748
tp3749
Rp3750
sg17
g18
(S'\x07\xe1\x02\r'
p3751
tp3752
Rp3753
ssI1219989
(dp3754
g2
g3
((lp3755
g108
aS'Elderly'
p3756
aS'Eco-friendly'
p3757
ag109
ag977
ag198
atp3758
Rp3759
sg12
g13
(S'\x07\xe1\x01\x0f\x0b\x168\x00\x8c+'
p3760
tp3761
Rp3762
sg17
g18
(S'\x07\xe1\x02\r'
p3763
tp3764
Rp3765
ssI1219991
(dp3766
g2
g3
((lp3767
g108
ag6
ag109
aS'Parent'
p3768
ag111
atp3769
Rp3770
sg12
g13
(S'\x07\xe1\x01\x0f\x0b\x168\x00\x8cD'
p3771
tp3772
Rp3773
sg17
g18
(S'\x07\xe1\x02\r'
p3774
tp3775
Rp3776
ssI1219992
(dp3777
g695
g3
((lp3778
g3557
ag1429
aS'Woman Owned Biz'
p3779
ag699
ag781
atp3780
Rp3781
sg703
g18
(S'\x07\xe1\x02\r'
p3782
tp3783
Rp3784
ssI1219994
(dp3785
g2
g3
((lp3786
g491
aS'Animals'
p3787
ag52
ag1981
ag495
ag28
atp3788
Rp3789
sg12
g13
(S'\x07\xe1\x01\x0f\x0b\x168\x00\x8bv'
p3790
tp3791
Rp3792
sg17
g18
(S'\x07\xe1\x02\r'
p3793
tp3794
Rp3795
ssI1219995
(dp3796
g2
g3
((lp3797
S'Parent'
p3798
ag54
ag25
aS'Woman Owned Biz'
p3799
aS'Repeat Borrower'
p3800
ag57
atp3801
Rp3802
sg12
g13
(S'\x07\xe1\x01\x0f\x0b\x168\x00\x97\xe3'
p3803
tp3804
Rp3805
sg17
g18
(S'\x07\xe1\x02\x0c'
p3806
tp3807
Rp3808
ssI1219996
(dp3809
g2
g3
((lp3810
g54
ag108
ag109
aS'Elderly'
p3811
ag198
atp3812
Rp3813
sg12
g13
(S'\x07\xe1\x01\x0f\x0b\x168\x00\x8b\xc4'
p3814
tp3815
Rp3816
sg17
g18
(S'\x07\xe1\x02\r'
p3817
tp3818
Rp3819
ssI1219997
(dp3820
g382
g3
((lp3821
S'Pakistan'
p3822
aS'Arts'
p3823
aS'Eco-friendly'
p3824
ag387
ag2875
atp3825
Rp3826
sg392
g18
(S'\x07\xe1\x02\r'
p3827
tp3828
Rp3829
ssI1219998
(dp3830
g2
g3
((lp3831
g491
ag28
aS'Animals'
p3832
ag495
ag198
atp3833
Rp3834
sg12
g13
(S'\x07\xe1\x01\x0f\x0b\x168\x00\x8b\x91'
p3835
tp3836
Rp3837
sg17
g18
(S'\x07\xe1\x02\r'
p3838
tp3839
Rp3840
ssI1219999
(dp3841
g2
g3
((lp3842
g24
ag977
ag25
aS'First Loan'
p3843
aS'Parent'
p3844
atp3845
Rp3846
sg12
g13
(S'\x07\xe1\x01\x0f\x0b\x168\x00\x8bC'
p3847
tp3848
Rp3849
sg17
g18
(S'\x07\xe1\x02\r'
p3850
tp3851
Rp3852
ssI1220000
(dp3853
g2
g3
((lp3854
g286
ag740
ag109
aS'Health and Sanitation'
p3855
atp3856
Rp3857
sg12
g13
(S'\x07\xe1\x01\x0f\x0b\x168\x00\x8b\xaa'
p3858
tp3859
Rp3860
sg17
g18
(S'\x07\xe1\x02\r'
p3861
tp3862
Rp3863
ssI1220001
(dp3864
g2
g3
((lp3865
g24
aS'Repeat Borrower'
p3866
ag25
aS'Repair Renew Replace'
p3867
ag6
atp3868
Rp3869
sg12
g13
(S'\x07\xe1\x01\x0f\x0b\x168\x00\x89\xd9'
p3870
tp3871
Rp3872
sg17
g18
(S'\x07\xe1\x02\r'
p3873
tp3874
Rp3875
ssI1220002
(dp3876
g2
g3
((lp3877
g491
ag28
aS'Biz Durable Asset'
p3878
aS'Animals'
p3879
ag495
atp3880
Rp3881
sg12
g13
(S'\x07\xe1\x01\x0f\x0b\x168\x00\x8b\x0f'
p3882
tp3883
Rp3884
sg17
g18
(S'\x07\xe1\x02\r'
p3885
tp3886
Rp3887
ssI1220004
(dp3888
g2
g3
((lp3889
g108
aS'Parent'
p3890
ag109
ag111
aS'Woman Owned Biz'
p3891
ag333
atp3892
Rp3893
sg12
g13
(S'\x07\xe1\x01\x0f\x0b\x168\x00\x8a\xdc'
p3894
tp3895
Rp3896
sg17
g18
(S'\x07\xe1\x02\r'
p3897
tp3898
Rp3899
ssI1220005
(dp3900
g2
g3
((lp3901
g108
ag333
ag109
aS'Elderly'
p3902
ag111
atp3903
Rp3904
sg12
g13
(S'\x07\xe1\x01\x0f\x0b\x168\x00\x8a\xf6'
p3905
tp3906
Rp3907
sg17
g18
(S'\x07\xe1\x02\r'
p3908
tp3909
Rp3910
ssI1220006
(dp3911
g2
g3
((lp3912
g108
aS'Biz Durable Asset'
p3913
ag109
ag111
ag345
aS'Fabrics'
p3914
atp3915
Rp3916
sg12
g13
(S"\x07\xe1\x01\x0f\x0b\x168\x00\x8a'"
p3917
tp3918
Rp3919
sg17
g18
(S'\x07\xe1\x02\r'
p3920
tp3921
Rp3922
ssI1220008
(dp3923
g2
g3
((lp3924
g491
aS'Animals'
p3925
ag52
aS'Elderly'
p3926
ag495
ag28
ag198
atp3927
Rp3928
sg12
g13
(S'\x07\xe1\x01\x0f\x0b\x168\x00\x8a\xa9'
p3929
tp3930
Rp3931
sg17
g18
(S'\x07\xe1\x02\r'
p3932
tp3933
Rp3934
ssI1220009
(dp3935
g2
g3
((lp3936
g108
aS'Biz Durable Asset'
p3937
ag109
ag111
ag345
aS'Fabrics'
p3938
atp3939
Rp3940
sg12
g13
(S'\x07\xe1\x01\x0f\x0b\x168\x00\x8aA'
p3941
tp3942
Rp3943
sg17
g18
(S'\x07\xe1\x02\r'
p3944
tp3945
Rp3946
ssI1220010
(dp3947
g2
g3
((lp3948
g108
ag52
aS'Parent'
p3949
ag109
ag111
aS'Woman Owned Biz'
p3950
ag3566
atp3951
Rp3952
sg12
g13
(S'\x07\xe1\x01\x0f\x0b\x168\x00\x89\xf3'
p3953
tp3954
Rp3955
sg17
g18
(S'\x07\xe1\x02\r'
p3956
tp3957
Rp3958
ssI1220011
(dp3959
g2
g3
((lp3960
g108
aS'Parent'
p3961
ag109
ag111
aS'Woman Owned Biz'
p3962
ag977
atp3963
Rp3964
sg12
g13
(S'\x07\xe1\x01\x0f\x0b\x168\x00\x8a\r'
p3965
tp3966
Rp3967
sg17
g18
(S'\x07\xe1\x02\r'
p3968
tp3969
Rp3970
ssI1220012
(dp3971
g2
g3
((lp3972
g491
ag28
aS'Animals'
p3973
ag1981
ag495
atp3974
Rp3975
sg12
g13
(S'\x07\xe1\x01\x0f\x0b\x168\x00\x8a['
p3976
tp3977
Rp3978
sg17
g18
(S'\x07\xe1\x02\r'
p3979
tp3980
Rp3981
ssI1220013
(dp3982
g2
g3
((lp3983
g108
aS'Biz Durable Asset'
p3984
ag109
ag111
ag345
aS'Fabrics'
p3985
atp3986
Rp3987
sg12
g13
(S'\x07\xe1\x01\x0f\x0b\x168\x00\x89\xa5'
p3988
tp3989
Rp3990
sg17
g18
(S'\x07\xe1\x02\r'
p3991
tp3992
Rp3993
ssI1220014
(dp3994
g2
g3
((lp3995
g491
aS'Animals'
p3996
aS'Elderly'
p3997
ag495
ag28
ag198
atp3998
Rp3999
sg12
g13
(S'\x07\xe1\x01\x0f\x0b\x168\x00\x89\xbf'
p4000
tp4001
Rp4002
sg17
g18
(S'\x07\xe1\x02\r'
p4003
tp4004
Rp4005
ssI1220020
(dp4006
g408
g3
((lp4007
g593
ag3381
ag594
atp4008
Rp4009
sg415
g18
(S'\x07\xe1\x02\r'
p4010
tp4011
Rp4012
ssI1220026
(dp4013
g2
g3
((lp4014
g637
aS'Schooling'
p4015
ag109
aS'Elderly'
p4016
ag196
ag286
atp4017
Rp4018
sg12
g13
(S'\x07\xe1\x01\x0f\x0b\x168\x00\x85t'
p4019
tp4020
Rp4021
sg17
g18
(S'\x07\xe1\x02\r'
p4022
tp4023
Rp4024
ssI1203646
(dp4025
g2
g3
((lp4026
g223
aS'Parent'
p4027
ag650
ag1608
ag109
aS'First Loan'
p4028
atp4029
Rp4030
sg12
g13
(S'\x07\xe1\x01\x0f\x0b\x168\x00\x98\xcd'
p4031
tp4032
Rp4033
sg17
g18
(S'\x07\xe1\x02\x0c'
p4034
tp4035
Rp4036
ssI1220034
(dp4037
g2
g3
((lp4038
g977
ag25
ag210
aS'Parent'
p4039
atp4040
Rp4041
sg12
g13
(S'\x07\xe1\x01\x0f\x0b\x168\x00\x86b'
p4042
tp4043
Rp4044
sg17
g18
(S'\x07\xe1\x02\r'
p4045
tp4046
Rp4047
ssI1220036
(dp4048
g519
g3
((lp4049
S'Europe'
p4050
ag570
aS'Repeat Borrower'
p4051
aS'Transportation'
p4052
aS'Armenia'
p4053
atp4054
Rp4055
sg527
g18
(S'\x07\xe1\x02\r'
p4056
tp4057
Rp4058
ssI1220037
(dp4059
g2
g3
((lp4060
g286
ag740
ag109
aS'Health and Sanitation'
p4061
atp4062
Rp4063
sg12
g13
(S'\x07\xe1\x01\x0f\x0b\x168\x00\x86\xfd'
p4064
tp4065
Rp4066
sg17
g18
(S'\x07\xe1\x02\r'
p4067
tp4068
Rp4069
ssI1220040
(dp4070
g382
g3
((lp4071
g603
ag604
aS'Eco-friendly'
p4072
ag1731
atp4073
Rp4074
sg392
g18
(S'\x07\xe1\x02\r'
p4075
tp4076
Rp4077
ssI1220045
(dp4078
g408
g3
((lp4079
g593
ag594
ag411
ag595
atp4080
Rp4081
sg415
g18
(S'\x07\xe1\x02\r'
p4082
tp4083
Rp4084
ssI1220049
(dp4085
g2
g3
((lp4086
g24
ag977
ag25
aS'First Loan'
p4087
atp4088
Rp4089
sg12
g13
(S'\x07\xe1\x01\x0f\x0b\x168\x00\x88 '
p4090
tp4091
Rp4092
sg17
g18
(S'\x07\xe1\x02\r'
p4093
tp4094
Rp4095
ssI1220050
(dp4096
g2
g3
((lp4097
g24
ag25
aS'Elderly'
p4098
ag6
atp4099
Rp4100
sg12
g13
(S'\x07\xe1\x01\x0f\x0b\x168\x00\x88\x86'
p4101
tp4102
Rp4103
sg17
g18
(S'\x07\xe1\x02\r'
p4104
tp4105
Rp4106
ssI1220051
(dp4107
g2
g3
((lp4108
g54
ag24
aS'Woman Owned Biz'
p4109
ag25
ag198
atp4110
Rp4111
sg12
g13
(S'\x07\xe1\x01\x0f\x0b\x168\x00\x88k'
p4112
tp4113
Rp4114
sg17
g18
(S'\x07\xe1\x02\r'
p4115
tp4116
Rp4117
ssI1220052
(dp4118
g2
g3
((lp4119
g637
ag52
aS'Schooling'
p4120
ag109
ag196
ag286
atp4121
Rp4122
sg12
g13
(S'\x07\xe1\x01\x0f\x0b\x168\x00\x85\x06'
p4123
tp4124
Rp4125
sg17
g18
(S'\x07\xe1\x02\r'
p4126
tp4127
Rp4128
ssI1220053
(dp4129
g2
g3
((lp4130
g108
aS'Biz Durable Asset'
p4131
ag109
ag111
ag345
aS'Fabrics'
p4132
atp4133
Rp4134
sg12
g13
(S'\x07\xe1\x01\x0f\x0b\x168\x00\x85H'
p4135
tp4136
Rp4137
sg17
g18
(S'\x07\xe1\x02\r'
p4138
tp4139
Rp4140
ssI1220054
(dp4141
g2
g3
((lp4142
g25
aS'Elderly'
p4143
ag24
aS'Woman Owned Biz'
p4144
ag333
aS'Fabrics'
p4145
atp4146
Rp4147
sg12
g13
(S'\x07\xe1\x01\x0f\x0b\x168\x00\x88\xa0'
p4148
tp4149
Rp4150
sg17
g18
(S'\x07\xe1\x02\r'
p4151
tp4152
Rp4153
ssI1220055
(dp4154
g2
g3
((lp4155
g54
ag24
ag25
aS'Elderly'
p4156
aS'Woman Owned Biz'
p4157
atp4158
Rp4159
sg12
g13
(S'\x07\xe1\x01\x0f\x0b\x168\x00\x88\xbb'
p4160
tp4161
Rp4162
sg17
g18
(S'\x07\xe1\x02\r'
p4163
tp4164
Rp4165
ssI1220058
(dp4166
g2
g3
((lp4167
g54
ag25
aS'Elderly'
p4168
aS'Woman Owned Biz'
p4169
aS'Repeat Borrower'
p4170
ag57
atp4171
Rp4172
sg12
g13
(S'\x07\xe1\x01\x0f\x0b\x168\x00\x96\xe5'
p4173
tp4174
Rp4175
sg17
g18
(S'\x07\xe1\x02\x0c'
p4176
tp4177
Rp4178
ssI1220059
(dp4179
g695
g3
((lp4180
g3557
ag1429
aS'Woman Owned Biz'
p4181
ag699
ag1018
atp4182
Rp4183
sg703
g18
(S'\x07\xe1\x02\r'
p4184
tp4185
Rp4186
ssI1220062
(dp4187
g2
g3
((lp4188
g108
ag2547
ag109
ag111
aS'Woman Owned Biz'
p4189
aS'Fabrics'
p4190
atp4191
Rp4192
sg12
g13
(S'\x07\xe1\x01\x0f\x0b\x168\x00\x885'
p4193
tp4194
Rp4195
sg17
g18
(S'\x07\xe1\x02\r'
p4196
tp4197
Rp4198
ssI1220064
(dp4199
g2
g3
((lp4200
S'Parent'
p4201
ag25
aS'Eco-friendly'
p4202
ag24
aS'Woman Owned Biz'
p4203
ag333
atp4204
Rp4205
sg12
g13
(S'\x07\xe1\x01\x0f\x0b\x168\x00\x87;'
p4206
tp4207
Rp4208
sg17
g18
(S'\x07\xe1\x02\r'
p4209
tp4210
Rp4211
ssI1220065
(dp4212
g2
g3
((lp4213
g25
aS'Schooling'
p4214
aS'Vegan'
p4215
ag195
ag196
ag198
atp4216
Rp4217
sg12
g13
(S'\x07\xe1\x01\x0f\x0b\x168\x00\x88P'
p4218
tp4219
Rp4220
sg17
g18
(S'\x07\xe1\x02\r'
p4221
tp4222
Rp4223
ssI1220066
(dp4224
g2
g3
((lp4225
g25
aS'Repeat Borrower'
p4226
ag333
ag57
ag52
atp4227
Rp4228
sg12
g13
(S'\x07\xe1\x01\x0f\x0b\x168\x00\x93\xd5'
p4229
tp4230
Rp4231
sg17
g18
(S'\x07\xe1\x02\x0c'
p4232
tp4233
Rp4234
ssI1220069
(dp4235
g236
g3
((lp4236
S'Indonesia'
p4237
aS'Personal Use'
p4238
ag240
aS'Green'
p4239
ag2365
ag2363
atp4240
Rp4241
sg243
g18
(S'\x07\xe1\x02\r'
p4242
tp4243
Rp4244
ssI1220071
(dp4245
g2
g3
((lp4246
S'Burundi'
p4247
ag54
ag25
ag1981
aS'Elderly'
p4248
atp4249
Rp4250
sg12
g13
(S'\x07\xe1\x01\x0f\x0b\x168\x00\x84\xaf'
p4251
tp4252
Rp4253
sg17
g18
(S'\x07\xe1\x02\r'
p4254
tp4255
Rp4256
ssI1220073
(dp4257
g2
g3
((lp4258
g108
aS'Woman Owned Biz'
p4259
ag333
ag109
ag111
atp4260
Rp4261
sg12
g13
(S'\x07\xe1\x01\x0f\x0b\x168\x00\x84\x99'
p4262
tp4263
Rp4264
sg17
g18
(S'\x07\xe1\x02\r'
p4265
tp4266
Rp4267
ssI1220075
(dp4268
g2
g3
((lp4269
S'Woman Owned Biz'
p4270
aS'Dominican Republic'
p4271
ag977
ag8
ag52
atp4272
Rp4273
sg12
g13
(S'\x07\xe1\x01\x0f\x0b\x168\x00\x88\xee'
p4274
tp4275
Rp4276
sg17
g18
(S'\x07\xe1\x02\r'
p4277
tp4278
Rp4279
ssI1220076
(dp4280
g2
g3
((lp4281
S'Woman Owned Biz'
p4282
ag4271
ag977
ag8
ag52
atp4283
Rp4284
sg12
g13
(S'\x07\xe1\x01\x0f\x0b\x168\x00\x87\xcd'
p4285
tp4286
Rp4287
sg17
g18
(S'\x07\xe1\x02\r'
p4288
tp4289
Rp4290
ssI1220077
(dp4291
g2
g3
((lp4292
S'Woman Owned Biz'
p4293
ag4271
ag333
ag8
atp4294
Rp4295
sg12
g13
(S'\x07\xe1\x01\x0f\x0b\x168\x00\x87\xe2'
p4296
tp4297
Rp4298
sg17
g18
(S'\x07\xe1\x02\r'
p4299
tp4300
Rp4301
ssI1220078
(dp4302
g2
g3
((lp4303
g54
aS'Woman Owned Biz'
p4304
ag4271
ag8
ag52
atp4305
Rp4306
sg12
g13
(S'\x07\xe1\x01\x0f\x0b\x168\x00\x87\xa4'
p4307
tp4308
Rp4309
sg17
g18
(S'\x07\xe1\x02\r'
p4310
tp4311
Rp4312
ssI1220081
(dp4313
S'elements'
p4314
g3
((lp4315
S'Kenya'
p4316
aS'Africa'
p4317
aS'Personal Use'
p4318
aS'user_favorite'
p4319
atp4320
Rp4321
sS'expired_at'
p4322
g18
(S'\x07\xe1\x02\r'
p4323
tp4324
Rp4325
ssI1220084
(dp4326
g2
g3
((lp4327
S'Parent'
p4328
ag25
ag24
aS'Woman Owned Biz'
p4329
ag28
ag198
atp4330
Rp4331
sg12
g13
(S'\x07\xe1\x01\x0f\x0b\x168\x00\x87e'
p4332
tp4333
Rp4334
sg17
g18
(S'\x07\xe1\x02\r'
p4335
tp4336
Rp4337
ssI1220085
(dp4338
g2
g3
((lp4339
g54
ag210
ag25
aS'Vegan'
p4340
aS'Parent'
p4341
atp4342
Rp4343
sg12
g13
(S'\x07\xe1\x01\x0f\x0b\x168\x00\x86\x80'
p4344
tp4345
Rp4346
sg17
g18
(S'\x07\xe1\x02\r'
p4347
tp4348
Rp4349
ssI1220088
(dp4350
g2
g3
((lp4351
g24
aS'Woman Owned Biz'
p4352
ag25
ag28
ag198
atp4353
Rp4354
sg12
g13
(S'\x07\xe1\x01\x0f\x0b\x168\x00\x86\x95'
p4355
tp4356
Rp4357
sg17
g18
(S'\x07\xe1\x02\r'
p4358
tp4359
Rp4360
ssI1220089
(dp4361
g2
g3
((lp4362
S'Job Creator'
p4363
ag124
ag28
ag125
ag111
atp4364
Rp4365
sg12
g13
(S'\x07\xe1\x01\x0f\x0b\x168\x00\xa4>'
p4366
tp4367
Rp4368
sg17
g18
(S'\x07\xe1\x02\x0c'
p4369
tp4370
Rp4371
ssI1220090
(dp4372
g2
g3
((lp4373
S'Animals'
p4374
aS'Parent'
p4375
aS'Biz Durable Asset'
p4376
ag25
aS'Schooling'
p4377
ag24
ag28
ag198
atp4378
Rp4379
sg12
g13
(S'\x07\xe1\x01\x0f\x0b\x168\x00\x86\xaa'
p4380
tp4381
Rp4382
sg17
g18
(S'\x07\xe1\x02\r'
p4383
tp4384
Rp4385
ssI1220091
(dp4386
g2
g3
((lp4387
S'Parent'
p4388
ag25
ag24
aS'Woman Owned Biz'
p4389
ag28
ag198
atp4390
Rp4391
sg12
g13
(S'\x07\xe1\x01\x0f\x0b\x168\x00\x86\xbf'
p4392
tp4393
Rp4394
sg17
g18
(S'\x07\xe1\x02\r'
p4395
tp4396
Rp4397
ssI1220092
(dp4398
g2
g3
((lp4399
S'Parent'
p4400
ag25
ag24
aS'Woman Owned Biz'
p4401
ag28
ag198
atp4402
Rp4403
sg12
g13
(S'\x07\xe1\x01\x0f\x0b\x168\x00\x86\xd3'
p4404
tp4405
Rp4406
sg17
g18
(S'\x07\xe1\x02\r'
p4407
tp4408
Rp4409
ssI1220093
(dp4410
g2
g3
((lp4411
g24
ag198
ag25
aS'Parent'
p4412
ag28
atp4413
Rp4414
sg12
g13
(S'\x07\xe1\x01\x0f\x0b\x168\x00\x85\xb7'
p4415
tp4416
Rp4417
sg17
g18
(S'\x07\xe1\x02\r'
p4418
tp4419
Rp4420
ssI1220095
(dp4421
g2
g3
((lp4422
g124
aS'Elderly'
p4423
ag125
ag111
aS'Repeat Borrower'
p4424
ag977
atp4425
Rp4426
sg12
g13
(S'\x07\xe1\x01\x0f\x0b\x168\x00\xa4W'
p4427
tp4428
Rp4429
sg17
g18
(S'\x07\xe1\x02\x0c'
p4430
tp4431
Rp4432
ssI1220096
(dp4433
g2
g3
((lp4434
g54
ag24
ag25
aS'Elderly'
p4435
atp4436
Rp4437
sg12
g13
(S'\x07\xe1\x01\x0f\x0b\x168\x00\x86"'
p4438
tp4439
Rp4440
sg17
g18
(S'\x07\xe1\x02\r'
p4441
tp4442
Rp4443
ssI1220098
(dp4444
g695
g3
((lp4445
S'Ghana'
p4446
ag1520
ag780
aS'Woman Owned Biz'
p4447
atp4448
Rp4449
sg703
g18
(S'\x07\xe1\x02\r'
p4450
tp4451
Rp4452
ssI1220100
(dp4453
g2
g3
((lp4454
S'Animals'
p4455
ag223
aS'Parent'
p4456
ag124
aS'Elderly'
p4457
ag111
aS'Woman Owned Biz'
p4458
ag28
aS'Ecuador'
p4459
atp4460
Rp4461
sg12
g13
(S'\x07\xe1\x01\x0f\x0b\x168\x00\xa3\xd6'
p4462
tp4463
Rp4464
sg17
g18
(S'\x07\xe1\x02\x0c'
p4465
tp4466
Rp4467
ssI1220102
(dp4468
g2
g3
((lp4469
g54
aS'Single'
p4470
ag25
ag210
atp4471
Rp4472
sg12
g13
(S'\x07\xe1\x01\x0f\x0b\x168\x00\x868'
p4473
tp4474
Rp4475
sg17
g18
(S'\x07\xe1\x02\r'
p4476
tp4477
Rp4478
ssI1220105
(dp4479
g382
g3
((lp4480
g1371
ag604
aS'Burkina Faso'
p4481
aS'Eco-friendly'
p4482
atp4483
Rp4484
sg392
g18
(S'\x07\xe1\x02\r'
p4485
tp4486
Rp4487
ssI1220107
(dp4488
g2
g3
((lp4489
g4247
ag25
ag333
ag1981
aS'Parent'
p4490
atp4491
Rp4492
sg12
g13
(S'\x07\xe1\x01\x0f\x0b\x168\x00\x82\x07'
p4493
tp4494
Rp4495
sg17
g18
(S'\x07\xe1\x02\r'
p4496
tp4497
Rp4498
ssI1220109
(dp4499
g2
g3
((lp4500
S'Biz Durable Asset'
p4501
aS'Animals'
p4502
ag223
ag124
aS'Single'
p4503
ag111
ag28
ag4459
atp4504
Rp4505
sg12
g13
(S'\x07\xe1\x01\x0f\x0b\x168\x00\xa2\xf2'
p4506
tp4507
Rp4508
sg17
g18
(S'\x07\xe1\x02\x0c'
p4509
tp4510
Rp4511
ssI1220110
(dp4512
g2
g3
((lp4513
S'Health and Sanitation'
p4514
ag52
aS'Parent'
p4515
aS'Fabrics'
p4516
aS'Guatemala'
p4517
ag740
aS'Repeat Borrower'
p4518
ag8
atp4519
Rp4520
sg12
g13
(S'\x07\xe1\x01\x0f\x0b\x168\x00\x86\x0c'
p4521
tp4522
Rp4523
sg17
g18
(S'\x07\xe1\x02\r'
p4524
tp4525
Rp4526
ssI1220111
(dp4527
g2
g3
((lp4528
g52
aS'Parent'
p4529
aS'Vegan'
p4530
ag4517
aS'Sustainable Ag'
p4531
aS'Woman Owned Biz'
p4532
ag28
ag8
atp4533
Rp4534
sg12
g13
(S'\x07\xe1\x01\x0f\x0b\x168\x00\x85\xe1'
p4535
tp4536
Rp4537
sg17
g18
(S'\x07\xe1\x02\r'
p4538
tp4539
Rp4540
ssI1220113
(dp4541
g2
g3
((lp4542
S'Woman Owned Biz'
p4543
ag4517
ag977
ag8
aS'Parent'
p4544
atp4545
Rp4546
sg12
g13
(S'\x07\xe1\x01\x0f\x0b\x168\x00\x85\xf7'
p4547
tp4548
Rp4549
sg17
g18
(S'\x07\xe1\x02\r'
p4550
tp4551
Rp4552
ssI1220114
(dp4553
g695
g3
((lp4554
g968
aS'Woman Owned Biz'
p4555
ag948
ag949
ag699
atp4556
Rp4557
sg703
g18
(S'\x07\xe1\x02\r'
p4558
tp4559
Rp4560
ssI1220116
(dp4561
g519
g3
((lp4562
g3317
aS'South_America'
p4563
aS'Underfunded Areas'
p4564
aS'Repeat Borrower'
p4565
aS'Agriculture'
p4566
aS'Ecuador'
p4567
atp4568
Rp4569
sg527
g18
(S'\x07\xe1\x02\x0c'
p4570
tp4571
Rp4572
ssI1220117
(dp4573
g408
g3
((lp4574
g1281
ag3289
ag412
atp4575
Rp4576
sg415
g18
(S'\x07\xe1\x02\r'
p4577
tp4578
Rp4579
ssI1220119
(dp4580
g1398
g3
((lp4581
S'Ghana'
p4582
aS'Services'
p4583
aS'Africa'
p4584
aS'Fabrics'
p4585
atp4586
Rp4587
sg1406
g18
(S'\x07\xe1\x02\r'
p4588
tp4589
Rp4590
ssI1220129
(dp4591
g2
g3
((lp4592
g54
ag359
ag25
aS'Parent'
p4593
ag111
atp4594
Rp4595
sg12
g13
(S'\x07\xe1\x01\x0f\x0b\x168\x00\x85\xcc'
p4596
tp4597
Rp4598
sg17
g18
(S'\x07\xe1\x02\r'
p4599
tp4600
Rp4601
ssI1220130
(dp4602
g2
g3
((lp4603
S'Animals'
p4604
ag52
aS'Parent'
p4605
ag54
aS'Vegan'
p4606
aS'Woman Owned Biz'
p4607
ag4271
ag8
atp4608
Rp4609
sg12
g13
(S'\x07\xe1\x01\x0f\x0b\x168\x00\x85\x8a'
p4610
tp4611
Rp4612
sg17
g18
(S'\x07\xe1\x02\r'
p4613
tp4614
Rp4615
ssI1220131
(dp4616
g2
g3
((lp4617
g1293
aS'Woman Owned Biz'
p4618
ag977
ag8
ag223
atp4619
Rp4620
sg12
g13
(S'\x07\xe1\x01\x0f\x0b\x168\x00\xa2\xd9'
p4621
tp4622
Rp4623
sg17
g18
(S'\x07\xe1\x02\x0c'
p4624
tp4625
Rp4626
ssI1220133
(dp4627
g2
g3
((lp4628
S'Woman Owned Biz'
p4629
ag4271
ag977
ag8
ag52
atp4630
Rp4631
sg12
g13
(S'\x07\xe1\x01\x0f\x0b\x168\x00z\xc3'
p4632
tp4633
Rp4634
sg17
g18
(S'\x07\xe1\x02\x0e'
p4635
tp4636
Rp4637
ssI1220135
(dp4638
g2
g3
((lp4639
g650
ag977
aS'Technology'
p4640
ag109
aS'First Loan'
p4641
atp4642
Rp4643
sg12
g13
(S'\x07\xe1\x01\x0f\x0b\x168\x00\x853'
p4644
tp4645
Rp4646
sg17
g18
(S'\x07\xe1\x02\r'
p4647
tp4648
Rp4649
ssI1220137
(dp4650
g2
g3
((lp4651
g25
aS'Schooling'
p4652
aS'Elderly'
p4653
ag359
ag111
ag345
aS'Fabrics'
p4654
atp4655
Rp4656
sg12
g13
(S'\x07\xe1\x01\x0f\x0b\x168\x00\x84\xc4'
p4657
tp4658
Rp4659
sg17
g18
(S'\x07\xe1\x02\r'
p4660
tp4661
Rp4662
ssI1220139
(dp4663
g2
g3
((lp4664
S'Widowed'
p4665
ag223
aS'First Loan'
p4666
ag650
ag1608
ag109
atp4667
Rp4668
sg12
g13
(S'\x07\xe1\x01\x0f\x0b\x168\x00\x84m'
p4669
tp4670
Rp4671
sg17
g18
(S'\x07\xe1\x02\r'
p4672
tp4673
Rp4674
ssI1220145
(dp4675
g408
g3
((lp4676
g664
aS'Health'
p4677
ag665
ag412
atp4678
Rp4679
sg415
g18
(S'\x07\xe1\x02\r'
p4680
tp4681
Rp4682
ssI1220149
(dp4683
g2
g3
((lp4684
g223
ag52
ag161
ag977
ag8
ag198
atp4685
Rp4686
sg12
g13
(S'\x07\xe1\x01\x0f\x0b\x168\x00\x84,'
p4687
tp4688
Rp4689
sg17
g18
(S'\x07\xe1\x02\r'
p4690
tp4691
Rp4692
ssI1220152
(dp4693
g2
g3
((lp4694
g54
aS'Repeat Borrower'
p4695
ag1412
ag8
atp4696
Rp4697
sg12
g13
(S'\x07\xe1\x01\x0f\x0b\x168\x00\xa1\xd8'
p4698
tp4699
Rp4700
sg17
g18
(S'\x07\xe1\x02\x0c'
p4701
tp4702
Rp4703
ssI1220154
(dp4704
g2
g3
((lp4705
S'Parent'
p4706
ag25
ag359
ag111
ag977
aS'Technology'
p4707
atp4708
Rp4709
sg12
g13
(S'\x07\xe1\x01\x0f\x0b\x168\x00\x85^'
p4710
tp4711
Rp4712
sg17
g18
(S'\x07\xe1\x02\r'
p4713
tp4714
Rp4715
ssI1220155
(dp4716
g2
g3
((lp4717
g54
aS'Repeat Borrower'
p4718
ag25
ag57
atp4719
Rp4720
sg12
g13
(S'\x07\xe1\x01\x0f\x0b\x168\x00}\x93'
p4721
tp4722
Rp4723
sg17
g18
(S'\x07\xe1\x02\x0e'
p4724
tp4725
Rp4726
ssI1220156
(dp4727
g2
g3
((lp4728
g1356
aS'Parent'
p4729
aS'First Loan'
p4730
ag1001
ag1357
ag124
ag1358
aS'Woman Owned Biz'
p4731
ag977
atp4732
Rp4733
sg12
g13
(S'\x07\xe1\x01\x0f\x0b\x168\x00\xa1\xbe'
p4734
tp4735
Rp4736
sg17
g18
(S'\x07\xe1\x02\x0c'
p4737
tp4738
Rp4739
ssI1220159
(dp4740
g2
g3
((lp4741
g1293
ag28
aS'Animals'
p4742
ag8
atp4743
Rp4744
sg12
g13
(S'\x07\xe1\x01\x0f\x0b\x168\x00\x9a\x8d'
p4745
tp4746
Rp4747
sg17
g18
(S'\x07\xe1\x02\x0c'
p4748
tp4749
Rp4750
ssI1220161
(dp4751
g38
g3
((lp4752
S'Services'
p4753
aS'Haiti'
p4754
aS'Job Creation'
p4755
aS'North_America'
p4756
aS'Growing Businesses'
p4757
atp4758
Rp4759
sg46
g18
(S'\x07\xe1\x02\r'
p4760
tp4761
Rp4762
ssI1220162
(dp4763
g2
g3
((lp4764
S'Woman Owned Biz'
p4765
ag124
ag977
ag285
ag1358
atp4766
Rp4767
sg12
g13
(S'\x07\xe1\x01\x0f\x0b\x168\x00\xa1%'
p4768
tp4769
Rp4770
sg17
g18
(S'\x07\xe1\x02\x0c'
p4771
tp4772
Rp4773
ssI1220164
(dp4774
g2
g3
((lp4775
S'Animals'
p4776
ag2233
aS'Elderly'
p4777
ag111
ag28
ag8
atp4778
Rp4779
sg12
g13
(S'\x07\xe1\x01\x0f\x0b\x168\x00\xa0\x8b'
p4780
tp4781
Rp4782
sg17
g18
(S'\x07\xe1\x02\x0c'
p4783
tp4784
Rp4785
ssI1220165
(dp4786
g2
g3
((lp4787
g28
ag285
ag124
aS'Animals'
p4788
ag1358
atp4789
Rp4790
sg12
g13
(S'\x07\xe1\x01\x0f\x0b\x168\x00\xa0r'
p4791
tp4792
Rp4793
sg17
g18
(S'\x07\xe1\x02\x0c'
p4794
tp4795
Rp4796
ssI1220166
(dp4797
g695
g3
((lp4798
S'Woman Owned Biz'
p4799
ag947
ag948
ag949
ag699
atp4800
Rp4801
sg703
g18
(S'\x07\xe1\x02\r'
p4802
tp4803
Rp4804
ssI1220170
(dp4805
g2
g3
((lp4806
g446
ag977
ag25
aS'Woman Owned Biz'
p4807
atp4808
Rp4809
sg12
g13
(S'\x07\xe1\x01\x0f\x0b\x168\x00}Z'
p4810
tp4811
Rp4812
sg17
g18
(S'\x07\xe1\x02\x0e'
p4813
tp4814
Rp4815
ssI1220173
(dp4816
g2
g3
((lp4817
g52
ag54
ag25
aS'Woman Owned Biz'
p4818
aS'Repeat Borrower'
p4819
ag57
atp4820
Rp4821
sg12
g13
(S'\x07\xe1\x01\x0f\x0b\x168\x00u\xf9'
p4822
tp4823
Rp4824
sg17
g18
(S'\x07\xe1\x02\x0e'
p4825
tp4826
Rp4827
ssI1220174
(dp4828
g2
g3
((lp4829
S'Supporting Family'
p4830
ag223
ag1293
aS'Vegan'
p4831
aS'Single'
p4832
ag111
ag28
ag8
atp4833
Rp4834
sg12
g13
(S'\x07\xe1\x01\x0f\x0b\x168\x00\xa0\n'
p4835
tp4836
Rp4837
sg17
g18
(S'\x07\xe1\x02\x0c'
p4838
tp4839
Rp4840
ssI1220175
(dp4841
g2
g3
((lp4842
g122
ag123
ag52
ag1356
ag1001
ag1357
ag124
ag1358
aS'Repeat Borrower'
p4843
ag977
atp4844
Rp4845
sg12
g13
(S'\x07\xe1\x01\x0f\x0b\x168\x00\xa0%'
p4846
tp4847
Rp4848
sg17
g18
(S'\x07\xe1\x02\x0c'
p4849
tp4850
Rp4851
ssI1220176
(dp4852
g2
g3
((lp4853
g446
aS'Repeat Borrower'
p4854
ag977
ag25
aS'Woman Owned Biz'
p4855
atp4856
Rp4857
sg12
g13
(S'\x07\xe1\x01\x0f\x0b\x168\x00w\x1f'
p4858
tp4859
Rp4860
sg17
g18
(S'\x07\xe1\x02\x0e'
p4861
tp4862
Rp4863
ssI1220178
(dp4864
g2
g3
((lp4865
S'Repeat Borrower'
p4866
ag977
ag25
ag57
atp4867
Rp4868
sg12
g13
(S'\x07\xe1\x01\x0f\x0b\x168\x00vp'
p4869
tp4870
Rp4871
sg17
g18
(S'\x07\xe1\x02\x0e'
p4872
tp4873
Rp4874
ssI1220179
(dp4875
g2
g3
((lp4876
g52
ag25
aS'Fabrics'
p4877
aS'Woman Owned Biz'
p4878
ag333
ag57
atp4879
Rp4880
sg12
g13
(S'\x07\xe1\x01\x0f\x0b\x168\x00vA'
p4881
tp4882
Rp4883
sg17
g18
(S'\x07\xe1\x02\x0e'
p4884
tp4885
Rp4886
ssI1220180
(dp4887
g2
g3
((lp4888
g223
ag1293
aS'Elderly'
p4889
ag54
aS'Woman Owned Biz'
p4890
ag8
atp4891
Rp4892
sg12
g13
(S'\x07\xe1\x01\x0f\x0b\x168\x00\x9f&'
p4893
tp4894
Rp4895
sg17
g18
(S'\x07\xe1\x02\x0c'
p4896
tp4897
Rp4898
ssI1220182
(dp4899
g2
g3
((lp4900
g1412
ag52
aS'Trees'
p4901
aS'Eco-friendly'
p4902
ag28
ag8
atp4903
Rp4904
sg12
g13
(S'\x07\xe1\x01\x0f\x0b\x168\x00\x9es'
p4905
tp4906
Rp4907
sg17
g18
(S'\x07\xe1\x02\x0c'
p4908
tp4909
Rp4910
ssI1220183
(dp4911
g2
g3
((lp4912
S'Biz Durable Asset'
p4913
ag285
ag124
aS'Elderly'
p4914
ag1358
aS'Woman Owned Biz'
p4915
ag977
atp4916
Rp4917
sg12
g13
(S'\x07\xe1\x01\x0f\x0b\x168\x00\x9a\xda'
p4918
tp4919
Rp4920
sg17
g18
(S'\x07\xe1\x02\x0c'
p4921
tp4922
Rp4923
ssI1220185
(dp4924
g2
g3
((lp4925
g52
ag124
ag1358
ag345
aS'Woman Owned Biz'
p4926
aS'Fabrics'
p4927
atp4928
Rp4929
sg12
g13
(S'\x07\xe1\x01\x0f\x0b\x168\x00\x9fW'
p4930
tp4931
Rp4932
sg17
g18
(S'\x07\xe1\x02\x0c'
p4933
tp4934
Rp4935
ssI1220186
(dp4936
g2
g3
((lp4937
g124
ag977
ag1358
aS'Biz Durable Asset'
p4938
atp4939
Rp4940
sg12
g13
(S'\x07\xe1\x01\x0f\x0b\x168\x00\x8b\xdd'
p4941
tp4942
Rp4943
sg17
g18
(S'\x07\xe1\x02\r'
p4944
tp4945
Rp4946
ssI1220188
(dp4947
g408
g3
((lp4948
S'Ghana'
p4949
ag1281
ag594
atp4950
Rp4951
sg415
g18
(S'\x07\xe1\x02\r'
p4952
tp4953
Rp4954
ssI1220189
(dp4955
g2
g3
((lp4956
S'Biz Durable Asset'
p4957
ag54
ag124
aS'Elderly'
p4958
ag1358
aS'Woman Owned Biz'
p4959
atp4960
Rp4961
sg12
g13
(S'\x07\xe1\x01\x0f\x0b\x168\x00\x9e&'
p4962
tp4963
Rp4964
sg17
g18
(S'\x07\xe1\x02\x0c'
p4965
tp4966
Rp4967
ssI1220190
(dp4968
g2
g3
((lp4969
S'Biz Durable Asset'
p4970
ag124
ag1358
ag345
aS'Woman Owned Biz'
p4971
aS'Fabrics'
p4972
atp4973
Rp4974
sg12
g13
(S'\x07\xe1\x01\x0f\x0b\x168\x00\x9d\xbf'
p4975
tp4976
Rp4977
sg17
g18
(S'\x07\xe1\x02\x0c'
p4978
tp4979
Rp4980
ssI1220192
(dp4981
g2
g3
((lp4982
S'Woman Owned Biz'
p4983
ag124
ag977
ag1358
aS'Elderly'
p4984
atp4985
Rp4986
sg12
g13
(S'\x07\xe1\x01\x0f\x0b\x168\x00\x9f?'
p4987
tp4988
Rp4989
sg17
g18
(S'\x07\xe1\x02\x0c'
p4990
tp4991
Rp4992
ssI1220193
(dp4993
g2
g3
((lp4994
g54
ag124
ag1358
atp4995
Rp4996
sg12
g13
(S'\x07\xe1\x01\x0f\x0b\x168\x00\x9c\x0e'
p4997
tp4998
Rp4999
sg17
g18
(S'\x07\xe1\x02\x0c'
p5000
tp5001
Rp5002
ssI1220194
(dp5003
g2
g3
((lp5004
g122
aS'Woman Owned Biz'
p5005
ag124
ag333
ag1358
atp5006
Rp5007
sg12
g13
(S'\x07\xe1\x01\x0f\x0b\x168\x00\x9aY'
p5008
tp5009
Rp5010
sg17
g18
(S'\x07\xe1\x02\x0c'
p5011
tp5012
Rp5013
ssI1220195
(dp5014
g2
g3
((lp5015
g122
ag123
aS'Biz Durable Asset'
p5016
ag124
ag1358
ag345
aS'Woman Owned Biz'
p5017
aS'Fabrics'
p5018
atp5019
Rp5020
sg12
g13
(S'\x07\xe1\x01\x0f\x0b\x168\x00\x9a\n'
p5021
tp5022
Rp5023
sg17
g18
(S'\x07\xe1\x02\x0c'
p5024
tp5025
Rp5026
ssI1220198
(dp5027
g2
g3
((lp5028
g1293
ag54
aS'Repeat Borrower'
p5029
ag8
atp5030
Rp5031
sg12
g13
(S'\x07\xe1\x01\x0f\x0b\x168\x00\x9d\xda'
p5032
tp5033
Rp5034
sg17
g18
(S'\x07\xe1\x02\x0c'
p5035
tp5036
Rp5037
ssI1220199
(dp5038
g2
g3
((lp5039
S'Animals'
p5040
ag124
aS'Elderly'
p5041
ag1358
ag28
ag198
atp5042
Rp5043
sg12
g13
(S'\x07\xe1\x01\x0f\x0b\x168\x00\x9d\xa5'
p5044
tp5045
Rp5046
sg17
g18
(S'\x07\xe1\x02\x0c'
p5047
tp5048
Rp5049
ssI1220200
(dp5050
g2
g3
((lp5051
g124
ag28
ag1358
ag198
atp5052
Rp5053
sg12
g13
(S'\x07\xe1\x01\x0f\x0b\x168\x00\x9b('
p5054
tp5055
Rp5056
sg17
g18
(S'\x07\xe1\x02\x0c'
p5057
tp5058
Rp5059
ssI1220201
(dp5060
g2
g3
((lp5061
g124
ag28
ag1358
ag198
atp5062
Rp5063
sg12
g13
(S'\x07\xe1\x01\x0f\x0b\x168\x00\x9b\xc2'
p5064
tp5065
Rp5066
sg17
g18
(S'\x07\xe1\x02\x0c'
p5067
tp5068
Rp5069
ssI1220202
(dp5070
g2
g3
((lp5071
S'Animals'
p5072
ag124
ag1358
aS'Woman Owned Biz'
p5073
ag28
ag198
atp5074
Rp5075
sg12
g13
(S'\x07\xe1\x01\x0f\x0b\x168\x00\x9c\xf3'
p5076
tp5077
Rp5078
sg17
g18
(S'\x07\xe1\x02\x0c'
p5079
tp5080
Rp5081
ssI1220203
(dp5082
g2
g3
((lp5083
g345
ag8
ag2233
aS'Fabrics'
p5084
ag111
atp5085
Rp5086
sg12
g13
(S'\x07\xe1\x01\x0f\x0b\x168\x00\x80/'
p5087
tp5088
Rp5089
sg17
g18
(S'\x07\xe1\x02\r'
p5090
tp5091
Rp5092
ssI1220206
(dp5093
g2
g3
((lp5094
S'Animals'
p5095
ag52
ag124
ag1358
aS'Woman Owned Biz'
p5096
aS'Repeat Borrower'
p5097
ag28
ag198
atp5098
Rp5099
sg12
g13
(S'\x07\xe1\x01\x0f\x0b\x168\x00\x9c\xc0'
p5100
tp5101
Rp5102
sg17
g18
(S'\x07\xe1\x02\x0c'
p5103
tp5104
Rp5105
ssI1220207
(dp5106
g2
g3
((lp5107
S'Animals'
p5108
ag124
ag1358
aS'Woman Owned Biz'
p5109
ag28
ag198
atp5110
Rp5111
sg12
g13
(S'\x07\xe1\x01\x0f\x0b\x168\x00\x9d\r'
p5112
tp5113
Rp5114
sg17
g18
(S'\x07\xe1\x02\x0c'
p5115
tp5116
Rp5117
ssI1220208
(dp5118
g2
g3
((lp5119
g124
ag28
ag1358
ag198
atp5120
Rp5121
sg12
g13
(S'\x07\xe1\x01\x0f\x0b\x168\x00\x9b\xdb'
p5122
tp5123
Rp5124
sg17
g18
(S'\x07\xe1\x02\x0c'
p5125
tp5126
Rp5127
ssI1220209
(dp5128
g2
g3
((lp5129
S'Animals'
p5130
ag28
ag124
ag1358
aS'Technology'
p5131
ag198
atp5132
Rp5133
sg12
g13
(S'\x07\xe1\x01\x0f\x0b\x168\x00\x9b\xa9'
p5134
tp5135
Rp5136
sg17
g18
(S'\x07\xe1\x02\x0c'
p5137
tp5138
Rp5139
ssI1220210
(dp5140
g2
g3
((lp5141
g124
ag28
ag1358
aS'Parent'
p5142
ag198
atp5143
Rp5144
sg12
g13
(S'\x07\xe1\x01\x0f\x0b\x168\x00\x9a%'
p5145
tp5146
Rp5147
sg17
g18
(S'\x07\xe1\x02\x0c'
p5148
tp5149
Rp5150
ssI1205876
(dp5151
g695
g3
((lp5152
S'Woman Owned Biz'
p5153
ag2910
ag698
ag699
atp5154
Rp5155
sg703
g18
(S'\x07\xe1\x02\r'
p5156
tp5157
Rp5158
ssI1220213
(dp5159
g2
g3
((lp5160
S'Woman Owned Biz'
p5161
ag4517
ag977
ag8
aS'Parent'
p5162
atp5163
Rp5164
sg12
g13
(S'\x07\xe1\x01\x0f\x0b\x168\x00\x99\xd6'
p5165
tp5166
Rp5167
sg17
g18
(S'\x07\xe1\x02\x0c'
p5168
tp5169
Rp5170
ssI1220214
(dp5171
g2
g3
((lp5172
S'Animals'
p5173
ag124
ag1358
aS'Repeat Borrower'
p5174
ag28
ag198
atp5175
Rp5176
sg12
g13
(S'\x07\xe1\x01\x0f\x0b\x168\x00\x95\x92'
p5177
tp5178
Rp5179
sg17
g18
(S'\x07\xe1\x02\x0c'
p5180
tp5181
Rp5182
ssI1216119
(dp5183
g2
g3
((lp5184
g52
aS'Parent'
p5185
ag54
ag25
ag359
ag111
aS'Woman Owned Biz'
p5186
atp5187
Rp5188
sg12
g13
(S'\x07\xe1\x01\x0f\x0b\x168\x00\x7f('
p5189
tp5190
Rp5191
sg17
g18
(S'\x07\xe1\x02\r'
p5192
tp5193
Rp5194
ssI1220216
(dp5195
g2
g3
((lp5196
S'Animals'
p5197
ag52
ag124
ag1358
aS'Woman Owned Biz'
p5198
ag28
ag198
atp5199
Rp5200
sg12
g13
(S'\x07\xe1\x01\x0f\x0b\x168\x00\x93U'
p5201
tp5202
Rp5203
sg17
g18
(S'\x07\xe1\x02\r'
p5204
tp5205
Rp5206
ssI1220217
(dp5207
g2
g3
((lp5208
g52
ag1293
aS'Woman Owned Biz'
p5209
aS'Repeat Borrower'
p5210
ag977
ag8
atp5211
Rp5212
sg12
g13
(S'\x07\xe1\x01\x0f\x0b\x168\x00\x80j'
p5213
tp5214
Rp5215
sg17
g18
(S'\x07\xe1\x02\r'
p5216
tp5217
Rp5218
ssI1220218
(dp5219
g2
g3
((lp5220
S'Animals'
p5221
ag124
ag1358
aS'Woman Owned Biz'
p5222
ag28
ag198
atp5223
Rp5224
sg12
g13
(S'\x07\xe1\x01\x0f\x0b\x168\x00\x99\r'
p5225
tp5226
Rp5227
sg17
g18
(S'\x07\xe1\x02\x0c'
p5228
tp5229
Rp5230
ssI1220219
(dp5231
g2
g3
((lp5232
S'Animals'
p5233
aS'Parent'
p5234
ag124
ag1358
ag28
ag198
atp5235
Rp5236
sg12
g13
(S'\x07\xe1\x01\x0f\x0b\x168\x00\x99"'
p5237
tp5238
Rp5239
sg17
g18
(S'\x07\xe1\x02\x0c'
p5240
tp5241
Rp5242
ssI1220220
(dp5243
g236
g3
((lp5244
g1446
aS'Manufacturing'
p5245
aS'Vulnerable Groups'
p5246
aS'Conflict Zones'
p5247
ag1448
atp5248
Rp5249
sg243
g18
(S'\x07\xe1\x02\x0c'
p5250
tp5251
Rp5252
ssI1220221
(dp5253
g2
g3
((lp5254
S'Woman Owned Biz'
p5255
ag124
ag28
ag1358
ag198
atp5256
Rp5257
sg12
g13
(S'\x07\xe1\x01\x0f\x0b\x168\x00\x97\xf9'
p5258
tp5259
Rp5260
sg17
g18
(S'\x07\xe1\x02\x0c'
p5261
tp5262
Rp5263
ssI1220222
(dp5264
g2
g3
((lp5265
S'Repeat Borrower'
p5266
ag124
ag28
ag1358
ag198
atp5267
Rp5268
sg12
g13
(S'\x07\xe1\x01\x0f\x0b\x168\x00\x96:'
p5269
tp5270
Rp5271
sg17
g18
(S'\x07\xe1\x02\x0c'
p5272
tp5273
Rp5274
ssI1205888
(dp5275
g236
g3
((lp5276
S'Refugees\\/Displaced'
p5277
ag5245
aS'Lebanon'
p5278
ag5246
ag240
atp5279
Rp5280
sg243
g18
(S'\x07\xe1\x02\r'
p5281
tp5282
Rp5283
ssI1220225
(dp5284
g2
g3
((lp5285
S'Supporting Family'
p5286
ag124
aS'Vegan'
p5287
ag494
aS'Single'
p5288
ag1358
ag28
atp5289
Rp5290
sg12
g13
(S'\x07\xe1\x01\x0f\x0b\x168\x00\x80L'
p5291
tp5292
Rp5293
sg17
g18
(S'\x07\xe1\x02\r'
p5294
tp5295
Rp5296
ssI1220228
(dp5297
g2
g3
((lp5298
g494
aS'Repeat Borrower'
p5299
ag124
ag28
ag1358
atp5300
Rp5301
sg12
g13
(S'\x07\xe1\x01\x0f\x0b\x168\x00\x95\xfb'
p5302
tp5303
Rp5304
sg17
g18
(S'\x07\xe1\x02\x0c'
p5305
tp5306
Rp5307
ssI1220229
(dp5308
g2
g3
((lp5309
g494
ag124
ag28
ag1358
aS'Vegan'
p5310
atp5311
Rp5312
sg12
g13
(S'\x07\xe1\x01\x0f\x0b\x168\x00\x95\xa7'
p5313
tp5314
Rp5315
sg17
g18
(S'\x07\xe1\x02\x0c'
p5316
tp5317
Rp5318
ssI1220230
(dp5319
g2
g3
((lp5320
g52
ag124
ag494
ag1358
aS'Woman Owned Biz'
p5321
ag977
atp5322
Rp5323
sg12
g13
(S'\x07\xe1\x01\x0f\x0b\x168\x00\x95\xbc'
p5324
tp5325
Rp5326
sg17
g18
(S'\x07\xe1\x02\x0c'
p5327
tp5328
Rp5329
ssI1220231
(dp5330
g2
g3
((lp5331
g494
aS'Woman Owned Biz'
p5332
ag124
ag977
ag1358
atp5333
Rp5334
sg12
g13
(S'\x07\xe1\x01\x0f\x0b\x168\x00\x95='
p5335
tp5336
Rp5337
sg17
g18
(S'\x07\xe1\x02\x0c'
p5338
tp5339
Rp5340
ssI1220232
(dp5341
g695
g3
((lp5342
g949
ag1520
aS'South_America'
p5343
aS'Colombia'
p5344
aS'Woman Owned Biz'
p5345
ag1871
atp5346
Rp5347
sg703
g18
(S'\x07\xe1\x02\x0c'
p5348
tp5349
Rp5350
ssI1220234
(dp5351
g2
g3
((lp5352
g1293
ag122
ag333
ag8
aS'Woman Owned Biz'
p5353
atp5354
Rp5355
sg12
g13
(S'\x07\xe1\x01\x0f\x0b\x168\x00\x94h'
p5356
tp5357
Rp5358
sg17
g18
(S'\x07\xe1\x02\x0c'
p5359
tp5360
Rp5361
ssI1220235
(dp5362
g2
g3
((lp5363
g223
ag54
ag124
aS'Elderly'
p5364
ag1358
ag3455
atp5365
Rp5366
sg12
g13
(S'\x07\xe1\x01\x0f\x0b\x168\x00\x94>'
p5367
tp5368
Rp5369
sg17
g18
(S'\x07\xe1\x02\x0c'
p5370
tp5371
Rp5372
ssI1220236
(dp5373
g2
g3
((lp5374
S'Biz Durable Asset'
p5375
ag223
ag124
aS'Elderly'
p5376
ag1358
ag345
ag3455
atp5377
Rp5378
sg12
g13
(S'\x07\xe1\x01\x0f\x0b\x168\x00\x93\xea'
p5379
tp5380
Rp5381
sg17
g18
(S'\x07\xe1\x02\x0c'
p5382
tp5383
Rp5384
ssI1220237
(dp5385
g2
g3
((lp5386
g3455
ag124
ag333
ag223
ag1358
atp5387
Rp5388
sg12
g13
(S'\x07\xe1\x01\x0f\x0b\x168\x00\x93\xff'
p5389
tp5390
Rp5391
sg17
g18
(S'\x07\xe1\x02\x0c'
p5392
tp5393
Rp5394
ssI1220238
(dp5395
g236
g3
((lp5396
g2362
ag5277
aS'South_America'
p5397
ag5246
aS'Colombia'
p5398
atp5399
Rp5400
sg243
g18
(S'\x07\xe1\x02\r'
p5401
tp5402
Rp5403
ssI1220240
(dp5404
g2
g3
((lp5405
g124
ag28
ag52
ag4459
atp5406
Rp5407
sg12
g13
(S'\x07\xe1\x01\x0f\x0b\x168\x00\x92}'
p5408
tp5409
Rp5410
sg17
g18
(S'\x07\xe1\x02\r'
p5411
tp5412
Rp5413
ssI1220241
(dp5414
g2
g3
((lp5415
g52
aS'Health and Sanitation'
p5416
ag124
aS'Elderly'
p5417
ag740
ag1358
ag3455
ag223
atp5418
Rp5419
sg12
g13
(S'\x07\xe1\x01\x0f\x0b\x168\x00\x93\x14'
p5420
tp5421
Rp5422
sg17
g18
(S'\x07\xe1\x02\r'
p5423
tp5424
Rp5425
ssI1204868
(dp5426
g695
g3
((lp5427
g1520
aS'Togo'
p5428
ag780
aS'Woman Owned Biz'
p5429
atp5430
Rp5431
sg703
g18
(S'\x07\xe1\x02\x0c'
p5432
tp5433
Rp5434
ssI1220243
(dp5435
g2
g3
((lp5436
g54
ag1412
aS'Animals'
p5437
ag8
atp5438
Rp5439
sg12
g13
(S'\x07\xe1\x01\x0f\x0b\x168\x00\x91\x94'
p5440
tp5441
Rp5442
sg17
g18
(S'\x07\xe1\x02\r'
p5443
tp5444
Rp5445
ssI1220244
(dp5446
g2
g3
((lp5447
g54
aS'Woman Owned Biz'
p5448
ag1412
ag8
atp5449
Rp5450
sg12
g13
(S'\x07\xe1\x01\x0f\x0b\x168\x00\x91\xbe'
p5451
tp5452
Rp5453
sg17
g18
(S'\x07\xe1\x02\r'
p5454
tp5455
Rp5456
ssI1220245
(dp5457
g2
g3
((lp5458
g1412
aS'Parent'
p5459
ag1608
ag1817
aS'Eco-friendly'
p5460
aS'Technology'
p5461
ag8
atp5462
Rp5463
sg12
g13
(S'\x07\xe1\x01\x0f\x0b\x168\x00\x80\x87'
p5464
tp5465
Rp5466
sg17
g18
(S'\x07\xe1\x02\r'
p5467
tp5468
Rp5469
ssI1220246
(dp5470
g2
g3
((lp5471
g1412
ag1608
aS'Elderly'
p5472
ag1817
aS'Eco-friendly'
p5473
aS'Technology'
p5474
ag8
atp5475
Rp5476
sg12
g13
(S'\x07\xe1\x01\x0f\x0b\x168\x00\x91\x7f'
p5477
tp5478
Rp5479
sg17
g18
(S'\x07\xe1\x02\r'
p5480
tp5481
Rp5482
ssI1220249
(dp5483
g2
g3
((lp5484
g223
aS'Elderly'
p5485
ag161
ag28
ag8
ag198
atp5486
Rp5487
sg12
g13
(S'\x07\xe1\x01\x0f\x0b\x168\x00\x83\x93'
p5488
tp5489
Rp5490
sg17
g18
(S'\x07\xe1\x02\r'
p5491
tp5492
Rp5493
ssI1220250
(dp5494
g2
g3
((lp5495
S'Animals'
p5496
ag223
ag52
ag161
ag28
ag8
ag198
atp5497
Rp5498
sg12
g13
(S'\x07\xe1\x01\x0f\x0b\x168\x00\x83\x10'
p5499
tp5500
Rp5501
sg17
g18
(S'\x07\xe1\x02\r'
p5502
tp5503
Rp5504
ssI1220251
(dp5505
g38
g3
((lp5506
g4754
ag483
ag183
aS'Vulnerable Groups'
p5507
ag4756
atp5508
Rp5509
sg46
g18
(S'\x07\xe1\x02\r'
p5510
tp5511
Rp5512
ssI1220253
(dp5513
g2
g3
((lp5514
g52
ag1356
ag1001
ag1357
ag124
ag1358
aS'Woman Owned Biz'
p5515
ag977
atp5516
Rp5517
sg12
g13
(S'\x07\xe1\x01\x0f\x0b\x168\x00\x91i'
p5518
tp5519
Rp5520
sg17
g18
(S'\x07\xe1\x02\r'
p5521
tp5522
Rp5523
ssI1220254
(dp5524
g236
g3
((lp5525
S'Haiti'
p5526
ag2363
ag238
ag5246
ag1448
atp5527
Rp5528
sg243
g18
(S'\x07\xe1\x02\r'
p5529
tp5530
Rp5531
ssI1220256
(dp5532
g382
g3
((lp5533
g384
aS'Eco-friendly'
p5534
aS'Haiti'
p5535
ag1731
ag1372
ag389
atp5536
Rp5537
sg392
g18
(S'\x07\xe1\x02\r'
p5538
tp5539
Rp5540
ssI1220257
(dp5541
g2
g3
((lp5542
g223
ag1293
aS'Elderly'
p5543
ag54
aS'Repeat Borrower'
p5544
ag8
atp5545
Rp5546
sg12
g13
(S'\x07\xe1\x01\x0f\x0b\x168\x00\x91='
p5547
tp5548
Rp5549
sg17
g18
(S'\x07\xe1\x02\r'
p5550
tp5551
Rp5552
ssI1220260
(dp5553
g2
g3
((lp5554
g5
aS'Repeat Borrower'
p5555
ag333
ag8
ag52
atp5556
Rp5557
sg12
g13
(S'\x07\xe1\x01\x0f\x0b\x168\x00\x90\xba'
p5558
tp5559
Rp5560
sg17
g18
(S'\x07\xe1\x02\r'
p5561
tp5562
Rp5563
ssI1220262
(dp5564
g2
g3
((lp5565
g223
aS'Parent'
p5566
ag1293
ag1981
ag977
ag8
atp5567
Rp5568
sg12
g13
(S'\x07\xe1\x01\x0f\x0b\x168\x00\x90\xcf'
p5569
tp5570
Rp5571
sg17
g18
(S'\x07\xe1\x02\r'
p5572
tp5573
Rp5574
ssI1220263
(dp5575
g2
g3
((lp5576
g1293
ag54
aS'Repeat Borrower'
p5577
ag8
ag223
atp5578
Rp5579
sg12
g13
(S'\x07\xe1\x01\x0f\x0b\x168\x00\x90e'
p5580
tp5581
Rp5582
sg17
g18
(S'\x07\xe1\x02\r'
p5583
tp5584
Rp5585
ssI1220264
(dp5586
g2
g3
((lp5587
g1334
aS'Woman Owned Biz'
p5588
ag977
ag124
ag52
atp5589
Rp5590
sg12
g13
(S'\x07\xe1\x01\x0f\x0b\x168\x00\x90\x10'
p5591
tp5592
Rp5593
sg17
g18
(S'\x07\xe1\x02\r'
p5594
tp5595
Rp5596
ssI1220265
(dp5597
g2
g3
((lp5598
g637
ag52
ag124
aS'Schooling'
p5599
ag297
ag196
atp5600
Rp5601
sg12
g13
(S'\x07\xe1\x01\x0f\x0b\x168\x00\x8f\xfb'
p5602
tp5603
Rp5604
sg17
g18
(S'\x07\xe1\x02\r'
p5605
tp5606
Rp5607
ssI1220268
(dp5608
g2
g3
((lp5609
g6
ag223
ag1293
aS'Elderly'
p5610
ag111
aS'Repeat Borrower'
p5611
ag8
atp5612
Rp5613
sg12
g13
(S'\x07\xe1\x01\x0f\x0b\x168\x00\x8eM'
p5614
tp5615
Rp5616
sg17
g18
(S'\x07\xe1\x02\r'
p5617
tp5618
Rp5619
ssI1220269
(dp5620
g2
g3
((lp5621
g1293
ag28
aS'Animals'
p5622
ag8
atp5623
Rp5624
sg12
g13
(S'\x07\xe1\x01\x0f\x0b\x168\x00\x8e\x8e'
p5625
tp5626
Rp5627
sg17
g18
(S'\x07\xe1\x02\r'
p5628
tp5629
Rp5630
ssI1220270
(dp5631
g382
g3
((lp5632
S'Nicaragua'
p5633
ag1165
ag1372
aS'Eco-friendly'
p5634
atp5635
Rp5636
sg392
g18
(S'\x07\xe1\x02\r'
p5637
tp5638
Rp5639
ssI1220272
(dp5640
g2
g3
((lp5641
g122
ag637
ag124
aS'Schooling'
p5642
ag125
aS'Repeat Borrower'
p5643
ag196
aS'Technology'
p5644
atp5645
Rp5646
sg12
g13
(S'\x07\xe1\x01\x0f\x0b\x168\x00\x8e8'
p5647
tp5648
Rp5649
sg17
g18
(S'\x07\xe1\x02\r'
p5650
tp5651
Rp5652
ssI1220275
(dp5653
g2
g3
((lp5654
g123
ag124
ag1358
aS'Woman Owned Biz'
p5655
ag977
ag198
atp5656
Rp5657
sg12
g13
(S'\x07\xe1\x01\x0f\x0b\x168\x00\x8e\xa3'
p5658
tp5659
Rp5660
sg17
g18
(S'\x07\xe1\x02\r'
p5661
tp5662
Rp5663
ssI1220276
(dp5664
g2
g3
((lp5665
g124
ag637
ag196
aS'Schooling'
p5666
ag125
atp5667
Rp5668
sg12
g13
(S'\x07\xe1\x01\x0f\x0b\x168\x00\x8e\xce'
p5669
tp5670
Rp5671
sg17
g18
(S'\x07\xe1\x02\r'
p5672
tp5673
Rp5674
ssI1220277
(dp5675
g2
g3
((lp5676
g28
ag285
ag124
aS'Animals'
p5677
ag1358
atp5678
Rp5679
sg12
g13
(S'\x07\xe1\x01\x0f\x0b\x168\x00\x8ec'
p5680
tp5681
Rp5682
sg17
g18
(S'\x07\xe1\x02\r'
p5683
tp5684
Rp5685
ssI1220278
(dp5686
g2
g3
((lp5687
g52
aS'Parent'
p5688
ag54
ag124
aS'Woman Owned Biz'
p5689
ag1334
atp5690
Rp5691
sg12
g13
(S'\x07\xe1\x01\x0f\x0b\x168\x00\x8d\xe2'
p5692
tp5693
Rp5694
sg17
g18
(S'\x07\xe1\x02\r'
p5695
tp5696
Rp5697
ssI1220279
(dp5698
g2
g3
((lp5699
S'Biz Durable Asset'
p5700
ag223
ag124
ag1358
ag345
ag3455
atp5701
Rp5702
sg12
g13
(S'\x07\xe1\x01\x0f\x0b\x168\x00\x8dB'
p5703
tp5704
Rp5705
sg17
g18
(S'\x07\xe1\x02\r'
p5706
tp5707
Rp5708
ssI1220280
(dp5709
g2
g3
((lp5710
g54
aS'Woman Owned Biz'
p5711
ag124
ag52
ag1358
atp5712
Rp5713
sg12
g13
(S'\x07\xe1\x01\x0f\x0b\x168\x00\x8di'
p5714
tp5715
Rp5716
sg17
g18
(S'\x07\xe1\x02\r'
p5717
tp5718
Rp5719
ssI1220212
(dp5720
g695
g3
((lp5721
S'Woman Owned Biz'
p5722
ag5343
ag698
ag5344
ag781
atp5723
Rp5724
sg703
g18
(S'\x07\xe1\x02\x0c'
p5725
tp5726
Rp5727
ssI1216186
(dp5728
g2
g3
((lp5729
g494
ag4517
ag977
ag8
ag52
atp5730
Rp5731
sg12
g13
(S'\x07\xe1\x01\x0f\x0b\x168\x00\x94\xfd'
p5732
tp5733
Rp5734
sg17
g18
(S'\x07\xe1\x02\x0c'
p5735
tp5736
Rp5737
ssI1220283
(dp5738
g2
g3
((lp5739
g122
ag1412
ag28
ag8
atp5740
Rp5741
sg12
g13
(S'\x07\xe1\x01\x0f\x0b\x168\x00\x8d\xa2'
p5742
tp5743
Rp5744
sg17
g18
(S'\x07\xe1\x02\r'
p5745
tp5746
Rp5747
ssI1220284
(dp5748
g2
g3
((lp5749
S'Animals'
p5750
ag124
ag1358
aS'Repeat Borrower'
p5751
ag28
ag198
atp5752
Rp5753
sg12
g13
(S'\x07\xe1\x01\x0f\x0b\x168\x00\x8c\xdb'
p5754
tp5755
Rp5756
sg17
g18
(S'\x07\xe1\x02\r'
p5757
tp5758
Rp5759
ssI1220285
(dp5760
g2
g3
((lp5761
S'Biz Durable Asset'
p5762
ag1356
ag1001
ag1357
ag124
ag1358
ag345
atp5763
Rp5764
sg12
g13
(S'\x07\xe1\x01\x0f\x0b\x168\x00\x8c\xf4'
p5765
tp5766
Rp5767
sg17
g18
(S'\x07\xe1\x02\r'
p5768
tp5769
Rp5770
ssI1220286
(dp5771
g38
g3
((lp5772
S'Refugees\\/Displaced'
p5773
ag42
ag183
ag5507
ag43
atp5774
Rp5775
sg46
g18
(S'\x07\xe1\x02\r'
p5776
tp5777
Rp5778
ssI1220287
(dp5779
g519
g3
((lp5780
S'Repeat Borrower'
p5781
ag4563
ag572
aS'Higher Education'
p5782
aS'Peru'
p5783
atp5784
Rp5785
sg527
g18
(S'\x07\xe1\x02\r'
p5786
tp5787
Rp5788
ssI1220288
(dp5789
g382
g3
((lp5790
g3823
ag384
aS'South_America'
p5791
aS'Eco-friendly'
p5792
aS'Colombia'
p5793
aS'Refugees\\/Displaced'
p5794
atp5795
Rp5796
sg392
g18
(S'\x07\xe1\x02\r'
p5797
tp5798
Rp5799
ssI1220289
(dp5800
g2
g3
((lp5801
g1334
aS'Woman Owned Biz'
p5802
ag124
ag333
ag52
atp5803
Rp5804
sg12
g13
(S'\x07\xe1\x01\x0f\x0b\x168\x00\x8a\xc3'
p5805
tp5806
Rp5807
sg17
g18
(S'\x07\xe1\x02\r'
p5808
tp5809
Rp5810
ssI1220290
(dp5811
g2
g3
((lp5812
g1356
aS'Parent'
p5813
ag54
ag1357
ag124
ag1001
ag1358
atp5814
Rp5815
sg12
g13
(S'\x07\xe1\x01\x0f\x0b\x168\x00\x87z'
p5816
tp5817
Rp5818
sg17
g18
(S'\x07\xe1\x02\r'
p5819
tp5820
Rp5821
ssI1220291
(dp5822
g2
g3
((lp5823
g52
aS'Parent'
p5824
ag54
ag124
aS'Woman Owned Biz'
p5825
ag1334
atp5826
Rp5827
sg12
g13
(S'\x07\xe1\x01\x0f\x0b\x168\x00\x87\x12'
p5828
tp5829
Rp5830
sg17
g18
(S'\x07\xe1\x02\r'
p5831
tp5832
Rp5833
ssI1220292
(dp5834
g2
g3
((lp5835
g1356
ag1001
ag1357
ag124
aS'Elderly'
p5836
ag1358
ag977
atp5837
Rp5838
sg12
g13
(S'\x07\xe1\x01\x0f\x0b\x168\x00\x84\xdb'
p5839
tp5840
Rp5841
sg17
g18
(S'\x07\xe1\x02\r'
p5842
tp5843
Rp5844
ssI1220293
(dp5845
g2
g3
((lp5846
g1412
ag52
ag345
aS'Repeat Borrower'
p5847
aS'Unique'
p5848
aS'Repair Renew Replace'
p5849
ag8
atp5850
Rp5851
sg12
g13
(S'\x07\xe1\x01\x0f\x0b\x168\x00\x83\xa9'
p5852
tp5853
Rp5854
sg17
g18
(S'\x07\xe1\x02\r'
p5855
tp5856
Rp5857
ssI1220295
(dp5858
g2
g3
((lp5859
g52
aS'Parent'
p5860
ag54
ag124
aS'Vegan'
p5861
aS'Woman Owned Biz'
p5862
aS'Repeat Borrower'
p5863
ag1334
atp5864
Rp5865
sg12
g13
(S'\x07\xe1\x01\x0f\x0b\x168\x00\x8c^'
p5866
tp5867
Rp5868
sg17
g18
(S'\x07\xe1\x02\r'
p5869
tp5870
Rp5871
ssI1220296
(dp5872
g2
g3
((lp5873
g124
ag1356
aS'Parent'
p5874
ag1001
ag1357
aS'Biz Durable Asset'
p5875
ag1358
aS'Woman Owned Biz'
p5876
ag977
atp5877
Rp5878
sg12
g13
(S'\x07\xe1\x01\x0f\x0b\x168\x00\x8b\xf6'
p5879
tp5880
Rp5881
sg17
g18
(S'\x07\xe1\x02\r'
p5882
tp5883
Rp5884
ssI1220298
(dp5885
g2
g3
((lp5886
g1412
ag223
aS'Elderly'
p5887
aS'Woman Owned Biz'
p5888
ag977
ag8
atp5889
Rp5890
sg12
g13
(S'\x07\xe1\x01\x0f\x0b\x168\x00\x8b\\'
p5891
tp5892
Rp5893
sg17
g18
(S'\x07\xe1\x02\r'
p5894
tp5895
Rp5896
ssI1220300
(dp5897
g2
g3
((lp5898
g1412
ag333
ag8
aS'Fabrics'
p5899
atp5900
Rp5901
sg12
g13
(S'\x07\xe1\x01\x0f\x0b\x168\x00\x8b)'
p5902
tp5903
Rp5904
sg17
g18
(S'\x07\xe1\x02\r'
p5905
tp5906
Rp5907
ssI1220302
(dp5908
g519
g3
((lp5909
S'IPA Study'
p5910
aS'Innovative Loans'
p5911
aS'Flexible Credit Study'
p5912
ag4563
aS'Colombia'
p5913
aS'Services'
p5914
aS'Repeat Borrower'
p5915
atp5916
Rp5917
sg527
g18
(S'\x07\xe1\x02\r'
p5918
tp5919
Rp5920
ssI1220303
(dp5921
g2
g3
((lp5922
g1356
aS'Parent'
p5923
ag1001
ag1357
ag124
ag1358
aS'Woman Owned Biz'
p5924
ag333
atp5925
Rp5926
sg12
g13
(S'\x07\xe1\x01\x0f\x0b\x168\x00\x8au'
p5927
tp5928
Rp5929
sg17
g18
(S'\x07\xe1\x02\r'
p5930
tp5931
Rp5932
ssI1220304
(dp5933
g695
g3
((lp5934
S'Woman Owned Biz'
p5935
ag5343
aS'Higher Education'
p5936
aS'Education'
p5937
aS'Peru'
p5938
atp5939
Rp5940
sg703
g18
(S'\x07\xe1\x02\r'
p5941
tp5942
Rp5943
ssI1220305
(dp5944
g2
g3
((lp5945
g1356
ag1001
ag1357
ag124
aS'Elderly'
p5946
ag1358
aS'Woman Owned Biz'
p5947
ag977
atp5948
Rp5949
sg12
g13
(S'\x07\xe1\x01\x0f\x0b\x168\x00\x8a\x8f'
p5950
tp5951
Rp5952
sg17
g18
(S'\x07\xe1\x02\r'
p5953
tp5954
Rp5955
ssI1220307
(dp5956
g2
g3
((lp5957
g54
aS'Repeat Borrower'
p5958
ag5
ag8
ag52
atp5959
Rp5960
sg12
g13
(S'\x07\xe1\x01\x0f\x0b\x168\x00\x89='
p5961
tp5962
Rp5963
sg17
g18
(S'\x07\xe1\x02\r'
p5964
tp5965
Rp5966
ssI1220308
(dp5967
g695
g3
((lp5968
g1520
aS'Woman Owned Biz'
p5969
aS'Nicaragua'
p5970
ag1428
atp5971
Rp5972
sg703
g18
(S'\x07\xe1\x02\r'
p5973
tp5974
Rp5975
ssI1220312
(dp5976
g2
g3
((lp5977
S'United States'
p5978
ag345
ag8
atp5979
Rp5980
sg12
g13
(S'\x07\xe1\x01\x0f\x0b\x168\x00\x94('
p5981
tp5982
Rp5983
sg17
g18
(S'\x07\xe1\x02\x0e'
p5984
tp5985
Rp5986
ssI1220314
(dp5987
g695
g3
((lp5988
S'Woman Owned Biz'
p5989
aS'Health'
p5990
ag1428
aS'Mexico'
p5991
atp5992
Rp5993
sg703
g18
(S'\x07\xe1\x02\r'
p5994
tp5995
Rp5996
ssI1220317
(dp5997
g236
g3
((lp5998
g4239
ag2363
ag238
ag1448
aS'Mexico'
p5999
atp6000
Rp6001
sg243
g18
(S'\x07\xe1\x02\r'
p6002
tp6003
Rp6004
ssI1220319
(dp6005
g519
g3
((lp6006
S'Philippines'
p6007
ag4566
aS'Repeat Borrower'
p6008
ag574
atp6009
Rp6010
sg527
g18
(S'\x07\xe1\x02\r'
p6011
tp6012
Rp6013
ssI1220320
(dp6014
g695
g3
((lp6015
S'Paraguay'
p6016
aS'Woman Owned Biz'
p6017
ag5343
ag5936
ag5937
atp6018
Rp6019
sg703
g18
(S'\x07\xe1\x02\r'
p6020
tp6021
Rp6022
ssI1220321
(dp6023
g2
g3
((lp6024
g297
ag124
ag637
ag196
aS'Schooling'
p6025
atp6026
Rp6027
sg12
g13
(S'\x07\xe1\x01\x0f\x0b\x168\x00\x83\xc0'
p6028
tp6029
Rp6030
sg17
g18
(S'\x07\xe1\x02\r'
p6031
tp6032
Rp6033
ssI1220323
(dp6034
g519
g3
((lp6035
S'Paraguay'
p6036
aS'Repeat Borrower'
p6037
ag4563
ag572
ag5782
atp6038
Rp6039
sg527
g18
(S'\x07\xe1\x02\r'
p6040
tp6041
Rp6042
ssI1220324
(dp6043
g2
g3
((lp6044
g637
ag52
ag124
aS'Schooling'
p6045
ag297
ag196
atp6046
Rp6047
sg12
g13
(S'\x07\xe1\x01\x0f\x0b\x168\x00\x89V'
p6048
tp6049
Rp6050
sg17
g18
(S'\x07\xe1\x02\r'
p6051
tp6052
Rp6053
ssI1220325
(dp6054
g519
g3
((lp6055
g6036
aS'Repeat Borrower'
p6056
ag4563
ag572
ag5782
atp6057
Rp6058
sg527
g18
(S'\x07\xe1\x02\r'
p6059
tp6060
Rp6061
ssI1220326
(dp6062
g382
g3
((lp6063
g1371
aS'Philippines'
p6064
aS'Eco-friendly'
p6065
ag387
atp6066
Rp6067
sg392
g18
(S'\x07\xe1\x02\r'
p6068
tp6069
Rp6070
ssI1220327
(dp6071
g2
g3
((lp6072
g297
ag124
ag637
ag196
aS'Schooling'
p6073
atp6074
Rp6075
sg12
g13
(S'\x07\xe1\x01\x0f\x0b\x168\x00\x88\xd5'
p6076
tp6077
Rp6078
sg17
g18
(S'\x07\xe1\x02\r'
p6079
tp6080
Rp6081
ssI1220328
(dp6082
g2
g3
((lp6083
g260
ag977
ag109
atp6084
Rp6085
sg12
g13
(S'\x07\xe1\x01\x0f\x0b\x168\x00\x84\x83'
p6086
tp6087
Rp6088
sg17
g18
(S'\x07\xe1\x02\r'
p6089
tp6090
Rp6091
ssI1220329
(dp6092
g2
g3
((lp6093
g260
ag109
ag1608
aS'Elderly'
p6094
atp6095
Rp6096
sg12
g13
(S'\x07\xe1\x01\x0f\x0b\x168\x00\x84\xf1'
p6097
tp6098
Rp6099
sg17
g18
(S'\x07\xe1\x02\r'
p6100
tp6101
Rp6102
ssI1220331
(dp6103
g695
g3
((lp6104
S'Woman Owned Biz'
p6105
ag2910
ag5937
ag5936
ag699
atp6106
Rp6107
sg703
g18
(S'\x07\xe1\x02\r'
p6108
tp6109
Rp6110
ssI1206000
(dp6111
g2
g3
((lp6112
g52
aS'Parent'
p6113
aS'Schooling'
p6114
ag109
ag1882
ag196
atp6115
Rp6116
sg12
g13
(S'\x07\xe1\x01\x0f\x0b\x168\x00\x92\xbe'
p6117
tp6118
Rp6119
sg17
g18
(S'\x07\xe1\x02\r'
p6120
tp6121
Rp6122
ssI1220339
(dp6123
g2
g3
((lp6124
g260
ag109
aS'Repair Renew Replace'
p6125
ag224
aS'Elderly'
p6126
atp6127
Rp6128
sg12
g13
(S'\x07\xe1\x01\x0f\x0b\x168\x00\x84X'
p6129
tp6130
Rp6131
sg17
g18
(S'\x07\xe1\x02\r'
p6132
tp6133
Rp6134
ssI1220342
(dp6135
g382
g3
((lp6136
g6064
aS'Housing'
p6137
ag387
aS'Eco-friendly'
p6138
atp6139
Rp6140
sg392
g18
(S'\x07\xe1\x02\r'
p6141
tp6142
Rp6143
ssI1220343
(dp6144
g2
g3
((lp6145
g286
ag740
ag109
aS'Health and Sanitation'
p6146
atp6147
Rp6148
sg12
g13
(S'\x07\xe1\x01\x0f\x0b\x168\x00\x84B'
p6149
tp6150
Rp6151
sg17
g18
(S'\x07\xe1\x02\r'
p6152
tp6153
Rp6154
ssI1220345
(dp6155
g2
g3
((lp6156
g54
ag286
ag109
aS'Parent'
p6157
atp6158
Rp6159
sg12
g13
(S'\x07\xe1\x01\x0f\x0b\x168\x00\x84\x00'
p6160
tp6161
Rp6162
sg17
g18
(S'\x07\xe1\x02\r'
p6163
tp6164
Rp6165
ssI1220346
(dp6166
g2
g3
((lp6167
S'Parent'
p6168
ag286
ag109
aS'Vegan'
p6169
aS'Repeat Borrower'
p6170
ag28
ag198
atp6171
Rp6172
sg12
g13
(S'\x07\xe1\x01\x0f\x0b\x168\x00\x84\x16'
p6173
tp6174
Rp6175
sg17
g18
(S'\x07\xe1\x02\r'
p6176
tp6177
Rp6178
ssI1220347
(dp6179
g2
g3
((lp6180
g286
ag740
ag109
aS'Health and Sanitation'
p6181
atp6182
Rp6183
sg12
g13
(S'\x07\xe1\x01\x0f\x0b\x168\x00\x83\xd5'
p6184
tp6185
Rp6186
sg17
g18
(S'\x07\xe1\x02\r'
p6187
tp6188
Rp6189
ssI1220350
(dp6190
g2
g3
((lp6191
g286
aS'Repeat Borrower'
p6192
ag28
ag52
ag109
atp6193
Rp6194
sg12
g13
(S'\x07\xe1\x01\x0f\x0b\x168\x00zm'
p6195
tp6196
Rp6197
sg17
g18
(S'\x07\xe1\x02\x0e'
p6198
tp6199
Rp6200
ssI1206018
(dp6201
g2
g3
((lp6202
g650
ag109
ag740
ag52
aS'Health and Sanitation'
p6203
atp6204
Rp6205
sg12
g13
(S'\x07\xe1\x01\x0f\x0b\x168\x00\x8d\x0e'
p6206
tp6207
Rp6208
sg17
g18
(S'\x07\xe1\x02\r'
p6209
tp6210
Rp6211
ssI1220357
(dp6212
g2
g3
((lp6213
g54
aS'Widowed'
p6214
ag286
ag109
aS'Elderly'
p6215
atp6216
Rp6217
sg12
g13
(S'\x07\xe1\x01\x0f\x0b\x168\x00y\x7f'
p6218
tp6219
Rp6220
sg17
g18
(S'\x07\xe1\x02\x0e'
p6221
tp6222
Rp6223
ssI1220358
(dp6224
g695
g3
((lp6225
S'Woman Owned Biz'
p6226
ag781
ag697
ag699
ag5990
atp6227
Rp6228
sg703
g18
(S'\x07\xe1\x02\r'
p6229
tp6230
Rp6231
ssI1220359
(dp6232
g2
g3
((lp6233
g286
ag28
ag109
aS'Parent'
p6234
ag198
atp6235
Rp6236
sg12
g13
(S'\x07\xe1\x01\x0f\x0b\x168\x00\x83\xeb'
p6237
tp6238
Rp6239
sg17
g18
(S'\x07\xe1\x02\r'
p6240
tp6241
Rp6242
ssI1220360
(dp6243
g2
g3
((lp6244
S'Parent'
p6245
aS'Health and Sanitation'
p6246
ag109
ag740
aS'Repeat Borrower'
p6247
ag286
atp6248
Rp6249
sg12
g13
(S'\x07\xe1\x01\x0f\x0b\x168\x00\x80\xc1'
p6250
tp6251
Rp6252
sg17
g18
(S'\x07\xe1\x02\r'
p6253
tp6254
Rp6255
ssI1220361
(dp6256
g2
g3
((lp6257
g108
ag198
aS'Repair Renew Replace'
p6258
ag109
ag6
atp6259
Rp6260
sg12
g13
(S"\x07\xe1\x01\x0f\x0b\x168\x00\x83'"
p6261
tp6262
Rp6263
sg17
g18
(S'\x07\xe1\x02\r'
p6264
tp6265
Rp6266
ssI1220362
(dp6267
g2
g3
((lp6268
g108
aS'Parent'
p6269
aS'Schooling'
p6270
ag109
ag345
aS'Fabrics'
p6271
ag198
atp6272
Rp6273
sg12
g13
(S'\x07\xe1\x01\x0f\x0b\x168\x00\x83<'
p6274
tp6275
Rp6276
sg17
g18
(S'\x07\xe1\x02\r'
p6277
tp6278
Rp6279
ssI1220363
(dp6280
g2
g3
((lp6281
g108
ag198
aS'Repair Renew Replace'
p6282
ag109
ag6
atp6283
Rp6284
sg12
g13
(S'\x07\xe1\x01\x0f\x0b\x168\x00\x83R'
p6285
tp6286
Rp6287
sg17
g18
(S'\x07\xe1\x02\r'
p6288
tp6289
Rp6290
ssI1220364
(dp6291
g2
g3
((lp6292
g108
ag109
ag345
aS'Woman Owned Biz'
p6293
aS'Fabrics'
p6294
ag198
atp6295
Rp6296
sg12
g13
(S'\x07\xe1\x01\x0f\x0b\x168\x00\x83g'
p6297
tp6298
Rp6299
sg17
g18
(S'\x07\xe1\x02\r'
p6300
tp6301
Rp6302
ssI1220365
(dp6303
g2
g3
((lp6304
g108
ag198
aS'Repair Renew Replace'
p6305
ag109
ag6
atp6306
Rp6307
sg12
g13
(S'\x07\xe1\x01\x0f\x0b\x168\x00\x83}'
p6308
tp6309
Rp6310
sg17
g18
(S'\x07\xe1\x02\r'
p6311
tp6312
Rp6313
ssI1203982
(dp6314
g2
g3
((lp6315
S'Supporting Family'
p6316
ag52
aS'Health and Sanitation'
p6317
ag109
ag740
aS'Single Parent'
p6318
aS'Parent'
p6319
ag286
atp6320
Rp6321
sg12
g13
(S'\x07\xe1\x01\x0f\x0b\x168\x00\x989'
p6322
tp6323
Rp6324
sg17
g18
(S'\x07\xe1\x02\x0c'
p6325
tp6326
Rp6327
ssI1220367
(dp6328
g2
g3
((lp6329
g345
ag108
aS'Fabrics'
p6330
ag109
ag198
atp6331
Rp6332
sg12
g13
(S'\x07\xe1\x01\x0f\x0b\x168\x00\x82\xe5'
p6333
tp6334
Rp6335
sg17
g18
(S'\x07\xe1\x02\r'
p6336
tp6337
Rp6338
ssI1220368
(dp6339
g2
g3
((lp6340
S'Biz Durable Asset'
p6341
ag109
ag345
aS'Woman Owned Biz'
p6342
ag286
aS'Fabrics'
p6343
atp6344
Rp6345
sg12
g13
(S'\x07\xe1\x01\x0f\x0b\x168\x00\x82\xfa'
p6346
tp6347
Rp6348
sg17
g18
(S'\x07\xe1\x02\r'
p6349
tp6350
Rp6351
ssI1220369
(dp6352
g2
g3
((lp6353
g108
aS'Parent'
p6354
ag54
ag109
aS'Woman Owned Biz'
p6355
aS'Repair Renew Replace'
p6356
ag198
atp6357
Rp6358
sg12
g13
(S'\x07\xe1\x01\x0f\x0b\x168\x00\x82\xa3'
p6359
tp6360
Rp6361
sg17
g18
(S'\x07\xe1\x02\r'
p6362
tp6363
Rp6364
ssI1220370
(dp6365
g2
g3
((lp6366
g108
aS'Biz Durable Asset'
p6367
ag109
ag345
aS'Woman Owned Biz'
p6368
aS'Fabrics'
p6369
ag198
atp6370
Rp6371
sg12
g13
(S'\x07\xe1\x01\x0f\x0b\x168\x00\x82\xb9'
p6372
tp6373
Rp6374
sg17
g18
(S'\x07\xe1\x02\r'
p6375
tp6376
Rp6377
ssI1220371
(dp6378
g2
g3
((lp6379
g345
ag108
aS'Fabrics'
p6380
ag109
ag198
atp6381
Rp6382
sg12
g13
(S'\x07\xe1\x01\x0f\x0b\x168\x00\x82p'
p6383
tp6384
Rp6385
sg17
g18
(S'\x07\xe1\x02\r'
p6386
tp6387
Rp6388
ssI1220372
(dp6389
g2
g3
((lp6390
g108
ag2547
aS'Fabrics'
p6391
ag109
ag198
atp6392
Rp6393
sg12
g13
(S'\x07\xe1\x01\x0f\x0b\x168\x00\x82\x8e'
p6394
tp6395
Rp6396
sg17
g18
(S'\x07\xe1\x02\r'
p6397
tp6398
Rp6399
ssI1220373
(dp6400
g2
g3
((lp6401
g108
aS'Parent'
p6402
ag54
ag109
aS'Woman Owned Biz'
p6403
ag198
atp6404
Rp6405
sg12
g13
(S'\x07\xe1\x01\x0f\x0b\x168\x00\x81\xb2'
p6406
tp6407
Rp6408
sg17
g18
(S'\x07\xe1\x02\r'
p6409
tp6410
Rp6411
ssI1220375
(dp6412
g2
g3
((lp6413
g345
ag108
aS'Fabrics'
p6414
ag109
ag198
atp6415
Rp6416
sg12
g13
(S'\x07\xe1\x01\x0f\x0b\x168\x00\x81n'
p6417
tp6418
Rp6419
sg17
g18
(S'\x07\xe1\x02\r'
p6420
tp6421
Rp6422
ssI1220376
(dp6423
g2
g3
((lp6424
g108
ag109
ag345
aS'Woman Owned Biz'
p6425
aS'Fabrics'
p6426
ag198
atp6427
Rp6428
sg12
g13
(S'\x07\xe1\x01\x0f\x0b\x168\x00\x81\x8a'
p6429
tp6430
Rp6431
sg17
g18
(S'\x07\xe1\x02\r'
p6432
tp6433
Rp6434
ssI1220377
(dp6435
g695
g3
((lp6436
g3557
ag1429
aS'Woman Owned Biz'
p6437
ag699
ag781
atp6438
Rp6439
sg703
g18
(S'\x07\xe1\x02\r'
p6440
tp6441
Rp6442
ssI1220378
(dp6443
g2
g3
((lp6444
g108
aS'Parent'
p6445
ag54
ag109
aS'Woman Owned Biz'
p6446
ag198
atp6447
Rp6448
sg12
g13
(S'\x07\xe1\x01\x0f\x0b\x168\x00\x81Q'
p6449
tp6450
Rp6451
sg17
g18
(S'\x07\xe1\x02\r'
p6452
tp6453
Rp6454
ssI1220379
(dp6455
g2
g3
((lp6456
g637
ag52
aS'Schooling'
p6457
ag109
ag196
ag286
atp6458
Rp6459
sg12
g13
(S'\x07\xe1\x01\x0f\x0b\x168\x00\x81\x17'
p6460
tp6461
Rp6462
sg17
g18
(S'\x07\xe1\x02\r'
p6463
tp6464
Rp6465
ssI1220380
(dp6466
g2
g3
((lp6467
g345
ag108
aS'Fabrics'
p6468
ag109
ag198
atp6469
Rp6470
sg12
g13
(S'\x07\xe1\x01\x0f\x0b\x168\x00\x82['
p6471
tp6472
Rp6473
sg17
g18
(S'\x07\xe1\x02\r'
p6474
tp6475
Rp6476
ssI1220381
(dp6477
g2
g3
((lp6478
g108
ag52
ag109
ag345
aS'Fabrics'
p6479
ag198
atp6480
Rp6481
sg12
g13
(S'\x07\xe1\x01\x0f\x0b\x168\x00\x82\x1c'
p6482
tp6483
Rp6484
sg17
g18
(S'\x07\xe1\x02\r'
p6485
tp6486
Rp6487
ssI1220382
(dp6488
g2
g3
((lp6489
g108
aS'Schooling'
p6490
ag109
aS'Elderly'
p6491
ag345
aS'Fabrics'
p6492
ag198
atp6493
Rp6494
sg12
g13
(S'\x07\xe1\x01\x0f\x0b\x168\x00\x821'
p6495
tp6496
Rp6497
sg17
g18
(S'\x07\xe1\x02\r'
p6498
tp6499
Rp6500
ssI1220383
(dp6501
g2
g3
((lp6502
g108
ag52
ag109
ag345
aS'Woman Owned Biz'
p6503
aS'Fabrics'
p6504
ag198
atp6505
Rp6506
sg12
g13
(S'\x07\xe1\x01\x0f\x0b\x168\x00\x82F'
p6507
tp6508
Rp6509
sg17
g18
(S'\x07\xe1\x02\r'
p6510
tp6511
Rp6512
ssI1220384
(dp6513
g2
g3
((lp6514
g108
ag109
ag345
aS'Woman Owned Biz'
p6515
aS'Fabrics'
p6516
ag198
atp6517
Rp6518
sg12
g13
(S'\x07\xe1\x01\x0f\x0b\x168\x00\x81\xf2'
p6519
tp6520
Rp6521
sg17
g18
(S'\x07\xe1\x02\r'
p6522
tp6523
Rp6524
ssI1220391
(dp6525
g2
g3
((lp6526
g54
ag108
aS'Woman Owned Biz'
p6527
ag109
ag198
atp6528
Rp6529
sg12
g13
(S'\x07\xe1\x01\x0f\x0b\x168\x00\x81\xdd'
p6530
tp6531
Rp6532
sg17
g18
(S'\x07\xe1\x02\r'
p6533
tp6534
Rp6535
ssI1220395
(dp6536
g38
g3
((lp6537
S'Health'
p6538
ag184
ag175
ag483
atp6539
Rp6540
sg46
g18
(S'\x07\xe1\x02\r'
p6541
tp6542
Rp6543
ssI1220398
(dp6544
g2
g3
((lp6545
g345
ag286
aS'Fabrics'
p6546
ag109
atp6547
Rp6548
sg12
g13
(S'\x07\xe1\x01\x0f\x0b\x168\x00\x80\xde'
p6549
tp6550
Rp6551
sg17
g18
(S'\x07\xe1\x02\r'
p6552
tp6553
Rp6554
ssI1220399
(dp6555
g4314
g3
((lp6556
S'Food'
p6557
aS'Philippines'
p6558
ag4319
aS'Asia'
p6559
atp6560
Rp6561
sg4322
g18
(S'\x07\xe1\x02\r'
p6562
tp6563
Rp6564
ssI1220401
(dp6565
g408
g3
((lp6566
g3289
ag3381
ag412
atp6567
Rp6568
sg415
g18
(S'\x07\xe1\x02\r'
p6569
tp6570
Rp6571
ssI1220402
(dp6572
g408
g3
((lp6573
g3289
ag411
ag412
atp6574
Rp6575
sg415
g18
(S'\x07\xe1\x02\r'
p6576
tp6577
Rp6578
ssI1220403
(dp6579
g2
g3
((lp6580
g286
ag740
ag109
aS'Health and Sanitation'
p6581
atp6582
Rp6583
sg12
g13
(S'\x07\xe1\x01\x0f\x0b\x168\x00\x814'
p6584
tp6585
Rp6586
sg17
g18
(S'\x07\xe1\x02\r'
p6587
tp6588
Rp6589
ssI1220405
(dp6590
g408
g3
((lp6591
g3289
ag3381
ag412
atp6592
Rp6593
sg415
g18
(S'\x07\xe1\x02\r'
p6594
tp6595
Rp6596
ssI1220407
(dp6597
g2
g3
((lp6598
g637
ag52
aS'Schooling'
p6599
ag109
ag196
ag286
atp6600
Rp6601
sg12
g13
(S'\x07\xe1\x01\x0f\x0b\x168\x00\x80\xfa'
p6602
tp6603
Rp6604
sg17
g18
(S'\x07\xe1\x02\r'
p6605
tp6606
Rp6607
ssI1220422
(dp6608
g2
g3
((lp6609
g297
ag122
ag124
ag977
aS'Repeat Borrower'
p6610
atp6611
Rp6612
sg12
g13
(S'\x07\xe1\x01\x0f\x0b\x168\x00\x87&'
p6613
tp6614
Rp6615
sg17
g18
(S'\x07\xe1\x02\r'
p6616
tp6617
Rp6618
ssI1220425
(dp6619
g382
g3
((lp6620
g6064
aS'Green'
p6621
ag6137
ag387
aS'Eco-friendly'
p6622
atp6623
Rp6624
sg392
g18
(S'\x07\xe1\x02\r'
p6625
tp6626
Rp6627
ssI1220426
(dp6628
g2
g3
((lp6629
g297
ag124
ag977
atp6630
Rp6631
sg12
g13
(S'\x07\xe1\x01\x0f\x0b\x168\x00\x87\xb8'
p6632
tp6633
Rp6634
sg17
g18
(S'\x07\xe1\x02\r'
p6635
tp6636
Rp6637
ssI1220427
(dp6638
g382
g3
((lp6639
g6064
ag6621
ag6137
ag387
aS'Eco-friendly'
p6640
atp6641
Rp6642
sg392
g18
(S'\x07\xe1\x02\r'
p6643
tp6644
Rp6645
ssI1220432
(dp6646
g382
g3
((lp6647
g6064
ag6621
ag6137
ag387
aS'Eco-friendly'
p6648
atp6649
Rp6650
sg392
g18
(S'\x07\xe1\x02\r'
p6651
tp6652
Rp6653
ssI1220435
(dp6654
g382
g3
((lp6655
g6064
ag6621
aS'Personal Use'
p6656
ag387
aS'Eco-friendly'
p6657
atp6658
Rp6659
sg392
g18
(S'\x07\xe1\x02\r'
p6660
tp6661
Rp6662
ssI1220440
(dp6663
g2
g3
((lp6664
g260
ag1817
ag224
ag109
aS'Eco-friendly'
p6665
atp6666
Rp6667
sg12
g13
(S'\x07\xe1\x01\x0f\x0b\x168\x00v\xe3'
p6668
tp6669
Rp6670
sg17
g18
(S'\x07\xe1\x02\x0e'
p6671
tp6672
Rp6673
ssI1220443
(dp6674
g2
g3
((lp6675
g24
ag198
ag25
aS'Parent'
p6676
ag28
atp6677
Rp6678
sg12
g13
(S'\x07\xe1\x01\x0f\x0b\x168\x00\x80\x13'
p6679
tp6680
Rp6681
sg17
g18
(S'\x07\xe1\x02\r'
p6682
tp6683
Rp6684
ssI1220446
(dp6685
g2
g3
((lp6686
S'Supporting Family'
p6687
ag25
aS'Single'
p6688
ag24
ag28
ag198
atp6689
Rp6690
sg12
g13
(S'\x07\xe1\x01\x0f\x0b\x168\x00~]'
p6691
tp6692
Rp6693
sg17
g18
(S'\x07\xe1\x02\x0e'
p6694
tp6695
Rp6696
ssI1220447
(dp6697
g2
g3
((lp6698
g24
ag198
ag25
aS'Parent'
p6699
ag28
atp6700
Rp6701
sg12
g13
(S'\x07\xe1\x01\x0f\x0b\x168\x00~z'
p6702
tp6703
Rp6704
sg17
g18
(S'\x07\xe1\x02\x0e'
p6705
tp6706
Rp6707
ssI1220448
(dp6708
g2
g3
((lp6709
g24
ag198
ag25
aS'Parent'
p6710
ag28
atp6711
Rp6712
sg12
g13
(S'\x07\xe1\x01\x0f\x0b\x168\x00~A'
p6713
tp6714
Rp6715
sg17
g18
(S'\x07\xe1\x02\x0e'
p6716
tp6717
Rp6718
ssI1220449
(dp6719
g2
g3
((lp6720
g24
ag198
ag25
aS'Parent'
p6721
ag28
atp6722
Rp6723
sg12
g13
(S'\x07\xe1\x01\x0f\x0b\x168\x00~\x08'
p6724
tp6725
Rp6726
sg17
g18
(S'\x07\xe1\x02\x0e'
p6727
tp6728
Rp6729
ssI1220450
(dp6730
g2
g3
((lp6731
g54
ag24
ag25
aS'Supporting Family'
p6732
ag198
atp6733
Rp6734
sg12
g13
(S'\x07\xe1\x01\x0f\x0b\x168\x00~$'
p6735
tp6736
Rp6737
sg17
g18
(S'\x07\xe1\x02\x0e'
p6738
tp6739
Rp6740
ssI1220451
(dp6741
g236
g3
((lp6742
S'Kenya'
p6743
aS'Africa'
p6744
ag238
ag2363
atp6745
Rp6746
sg243
g18
(S'\x07\xe1\x02\x0e'
p6747
tp6748
Rp6749
ssI1220453
(dp6750
g2
g3
((lp6751
g491
ag637
ag52
aS'Schooling'
p6752
aS'Female Education'
p6753
aS'Georgia'
p6754
ag196
atp6755
Rp6756
sg12
g13
(S'\x07\xe1\x01\x0f\x0b\x168\x00\x7f\xd9'
p6757
tp6758
Rp6759
sg17
g18
(S'\x07\xe1\x02\r'
p6760
tp6761
Rp6762
ssI1220454
(dp6763
g695
g3
((lp6764
g778
aS'Woman Owned Biz'
p6765
ag780
ag698
ag781
atp6766
Rp6767
sg703
g18
(S'\x07\xe1\x02\r'
p6768
tp6769
Rp6770
ssI1220456
(dp6771
g2
g3
((lp6772
g24
aS'Woman Owned Biz'
p6773
ag25
ag28
ag198
atp6774
Rp6775
sg12
g13
(S'\x07\xe1\x01\x0f\x0b\x168\x00\x7f\xf6'
p6776
tp6777
Rp6778
sg17
g18
(S'\x07\xe1\x02\r'
p6779
tp6780
Rp6781
ssI1220457
(dp6782
g695
g3
((lp6783
S'Woman Owned Biz'
p6784
ag2910
ag699
ag1629
ag1631
atp6785
Rp6786
sg703
g18
(S'\x07\xe1\x02\x0e'
p6787
tp6788
Rp6789
ssI1206122
(dp6790
g519
g3
((lp6791
S'Repeat Borrower'
p6792
ag572
ag573
ag5782
ag574
atp6793
Rp6794
sg527
g18
(S'\x07\xe1\x02\r'
p6795
tp6796
Rp6797
ssI1220460
(dp6798
g2
g3
((lp6799
S'Parent'
p6800
ag1293
ag54
aS'Single Parent'
p6801
aS'Repeat Borrower'
p6802
ag8
atp6803
Rp6804
sg12
g13
(S'\x07\xe1\x01\x0f\x0b\x168\x00\x87P'
p6805
tp6806
Rp6807
sg17
g18
(S'\x07\xe1\x02\r'
p6808
tp6809
Rp6810
ssI1220461
(dp6811
g695
g3
((lp6812
S'Woman Owned Biz'
p6813
ag2910
aS'Construction'
p6814
ag699
ag1631
atp6815
Rp6816
sg703
g18
(S'\x07\xe1\x02\r'
p6817
tp6818
Rp6819
ssI1220464
(dp6820
g695
g3
((lp6821
S'Woman Owned Biz'
p6822
ag2910
ag6814
ag699
ag1631
atp6823
Rp6824
sg703
g18
(S'\x07\xe1\x02\r'
p6825
tp6826
Rp6827
ssI1220467
(dp6828
g2
g3
((lp6829
g223
aS'Parent'
p6830
ag1293
aS'Schooling'
p6831
aS'Woman Owned Biz'
p6832
ag977
ag8
atp6833
Rp6834
sg12
g13
(S'\x07\xe1\x01\x0f\x0b\x168\x00\x86\xe8'
p6835
tp6836
Rp6837
sg17
g18
(S'\x07\xe1\x02\r'
p6838
tp6839
Rp6840
ssI1220468
(dp6841
g1840
g3
((lp6842
S'El Salvador'
p6843
aS'Elderly'
p6844
aS'Woman Owned Biz'
p6845
aS'Repeat Borrower'
p6846
ag2833
aS'North_America'
p6847
ag2834
atp6848
Rp6849
sg1850
g18
(S'\x07\xe1\x02\r'
p6850
tp6851
Rp6852
ssI1220469
(dp6853
g408
g3
((lp6854
S'El Salvador'
p6855
ag411
aS'North_America'
p6856
atp6857
Rp6858
sg415
g18
(S'\x07\xe1\x02\r'
p6859
tp6860
Rp6861
ssI1220470
(dp6862
g38
g3
((lp6863
S'El Salvador'
p6864
ag40
aS'Start-Up'
p6865
ag183
ag4756
atp6866
Rp6867
sg46
g18
(S'\x07\xe1\x02\r'
p6868
tp6869
Rp6870
ssI1220471
(dp6871
g695
g3
((lp6872
S'Woman Owned Biz'
p6873
ag5990
ag1428
ag5991
atp6874
Rp6875
sg703
g18
(S'\x07\xe1\x02\r'
p6876
tp6877
Rp6878
ssI1220472
(dp6879
g2
g3
((lp6880
g491
aS'Albania'
p6881
ag740
aS'Health and Sanitation'
p6882
ag111
atp6883
Rp6884
sg12
g13
(S'\x07\xe1\x01\x0f\x0b\x168\x00\x7f\x82'
p6885
tp6886
Rp6887
sg17
g18
(S'\x07\xe1\x02\r'
p6888
tp6889
Rp6890
ssI1220473
(dp6891
g2
g3
((lp6892
g52
aS'Parent'
p6893
ag124
ag297
aS'Woman Owned Biz'
p6894
ag977
atp6895
Rp6896
sg12
g13
(S'\x07\xe1\x01\x0f\x0b\x168\x00~\xb3'
p6897
tp6898
Rp6899
sg17
g18
(S'\x07\xe1\x02\r'
p6900
tp6901
Rp6902
ssI1220474
(dp6903
g2
g3
((lp6904
g297
aS'Woman Owned Biz'
p6905
ag124
ag977
atp6906
Rp6907
sg12
g13
(S'\x07\xe1\x01\x0f\x0b\x168\x00\x7f\x0b'
p6908
tp6909
Rp6910
sg17
g18
(S'\x07\xe1\x02\r'
p6911
tp6912
Rp6913
ssI1220476
(dp6914
g2
g3
((lp6915
g297
ag345
ag124
aS'Woman Owned Biz'
p6916
atp6917
Rp6918
sg12
g13
(S'\x07\xe1\x01\x0f\x0b\x168\x00~\x97'
p6919
tp6920
Rp6921
sg17
g18
(S'\x07\xe1\x02\x0e'
p6922
tp6923
Rp6924
ssI1220480
(dp6925
g2
g3
((lp6926
g260
ag109
aS'Single'
p6927
aS'Elderly'
p6928
aS'Woman Owned Biz'
p6929
aS'Repeat Borrower'
p6930
ag977
atp6931
Rp6932
sg12
g13
(S'\x07\xe1\x01\x0f\x0b\x168\x00}\xcd'
p6933
tp6934
Rp6935
sg17
g18
(S'\x07\xe1\x02\x0e'
p6936
tp6937
Rp6938
ssI1220482
(dp6939
g2
g3
((lp6940
g52
ag54
ag124
ag1981
ag297
aS'Woman Owned Biz'
p6941
ag223
atp6942
Rp6943
sg12
g13
(S'\x07\xe1\x01\x0f\x0b\x168\x00}\xb0'
p6944
tp6945
Rp6946
sg17
g18
(S'\x07\xe1\x02\x0e'
p6947
tp6948
Rp6949
ssI1220483
(dp6950
g695
g3
((lp6951
g6016
ag968
ag5343
aS'Woman Owned Biz'
p6952
atp6953
Rp6954
sg703
g18
(S'\x07\xe1\x02\x0e'
p6955
tp6956
Rp6957
ssI1220484
(dp6958
g236
g3
((lp6959
S'Paraguay'
p6960
ag5397
ag238
atp6961
Rp6962
sg243
g18
(S'\x07\xe1\x02\x0e'
p6963
tp6964
Rp6965
ssI1220486
(dp6966
S'elements'
p6967
g3
((lp6968
S'Paraguay'
p6969
aS'Food'
p6970
aS'South_America'
p6971
aS'user_favorite'
p6972
atp6973
Rp6974
sS'expired_at'
p6975
g18
(S'\x07\xe1\x02\x0e'
p6976
tp6977
Rp6978
ssI1220487
(dp6979
g2
g3
((lp6980
g297
aS'Woman Owned Biz'
p6981
ag124
ag333
ag52
atp6982
Rp6983
sg12
g13
(S'\x07\xe1\x01\x0f\x0b\x168\x00}w'
p6984
tp6985
Rp6986
sg17
g18
(S'\x07\xe1\x02\x0e'
p6987
tp6988
Rp6989
ssI1220489
(dp6990
g2
g3
((lp6991
g297
aS'Woman Owned Biz'
p6992
ag124
ag333
ag52
atp6993
Rp6994
sg12
g13
(S'\x07\xe1\x01\x0f\x0b\x168\x00|u'
p6995
tp6996
Rp6997
sg17
g18
(S'\x07\xe1\x02\x0e'
p6998
tp6999
Rp7000
ssI1220491
(dp7001
g2
g3
((lp7002
g297
ag54
ag124
atp7003
Rp7004
sg12
g13
(S'\x07\xe1\x01\x0f\x0b\x168\x00z\xe1'
p7005
tp7006
Rp7007
sg17
g18
(S'\x07\xe1\x02\x0e'
p7008
tp7009
Rp7010
ssI1206156
(dp7011
g2
g3
((lp7012
g25
ag333
aS'Sierra Leone'
p7013
aS'Parent'
p7014
ag52
atp7015
Rp7016
sg12
g13
(S'\x07\xe1\x01\x0f\x0b\x168\x00\x92R'
p7017
tp7018
Rp7019
sg17
g18
(S'\x07\xe1\x02\r'
p7020
tp7021
Rp7022
ssI1220493
(dp7023
g2
g3
((lp7024
g297
aS'Woman Owned Biz'
p7025
ag124
ag977
atp7026
Rp7027
sg12
g13
(S'\x07\xe1\x01\x0f\x0b\x168\x00|\x03'
p7028
tp7029
Rp7030
sg17
g18
(S'\x07\xe1\x02\x0e'
p7031
tp7032
Rp7033
ssI1220494
(dp7034
g2
g3
((lp7035
g297
ag124
ag358
aS'Biz Durable Asset'
p7036
ag52
atp7037
Rp7038
sg12
g13
(S'\x07\xe1\x01\x0f\x0b\x168\x00z2'
p7039
tp7040
Rp7041
sg17
g18
(S'\x07\xe1\x02\x0e'
p7042
tp7043
Rp7044
ssI1220495
(dp7045
g2
g3
((lp7046
g637
ag124
aS'Schooling'
p7047
ag297
aS'Repeat Borrower'
p7048
ag196
atp7049
Rp7050
sg12
g13
(S'\x07\xe1\x01\x0f\x0b\x168\x00{\x91'
p7051
tp7052
Rp7053
sg17
g18
(S'\x07\xe1\x02\x0e'
p7054
tp7055
Rp7056
ssI1220496
(dp7057
g2
g3
((lp7058
g637
ag52
ag124
aS'Schooling'
p7059
ag297
ag196
atp7060
Rp7061
sg12
g13
(S'\x07\xe1\x01\x0f\x0b\x168\x00|\x1f'
p7062
tp7063
Rp7064
sg17
g18
(S'\x07\xe1\x02\x0e'
p7065
tp7066
Rp7067
ssI1220504
(dp7068
g2
g3
((lp7069
g28
aS'Jordan'
p7070
aS'Animals'
p7071
ag109
atp7072
Rp7073
sg12
g13
(S'\x07\xe1\x01\x0f\x0b\x168\x00}!'
p7074
tp7075
Rp7076
sg17
g18
(S'\x07\xe1\x02\x0e'
p7077
tp7078
Rp7079
ssI1220505
(dp7080
g2
g3
((lp7081
S'Palestine'
p7082
ag82
ag977
ag494
aS'Arab Youth'
p7083
atp7084
Rp7085
sg12
g13
(S'\x07\xe1\x01\x0f\x0b\x168\x00}='
p7086
tp7087
Rp7088
sg17
g18
(S'\x07\xe1\x02\x0e'
p7089
tp7090
Rp7091
ssI1220506
(dp7092
g2
g3
((lp7093
g637
ag52
ag82
aS'Schooling'
p7094
ag7082
ag196
atp7095
Rp7096
sg12
g13
(S'\x07\xe1\x01\x0f\x0b\x168\x00|\xcb'
p7097
tp7098
Rp7099
sg17
g18
(S'\x07\xe1\x02\x0e'
p7100
tp7101
Rp7102
ssI1220507
(dp7103
g2
g3
((lp7104
S'Supporting Family'
p7105
ag2232
ag82
ag224
aS'Single'
p7106
ag1981
ag7082
aS'Repair Renew Replace'
p7107
aS'Refugee'
p7108
atp7109
Rp7110
sg12
g13
(S'\x07\xe1\x01\x0f\x0b\x168\x00|\x91'
p7111
tp7112
Rp7113
sg17
g18
(S'\x07\xe1\x02\x0e'
p7114
tp7115
Rp7116
ssI1220508
(dp7117
g2
g3
((lp7118
g54
ag7070
ag109
aS'Vegan'
p7119
atp7120
Rp7121
sg12
g13
(S'\x07\xe1\x01\x0f\x0b\x168\x00|X'
p7122
tp7123
Rp7124
sg17
g18
(S'\x07\xe1\x02\x0e'
p7125
tp7126
Rp7127
ssI1220509
(dp7128
g236
g3
((lp7129
S'Higher Education'
p7130
aS'Education'
p7131
aS'Jordan'
p7132
ag240
atp7133
Rp7134
sg243
g18
(S'\x07\xe1\x02\x0e'
p7135
tp7136
Rp7137
ssI1220510
(dp7138
g2
g3
((lp7139
g637
aS'Schooling'
p7140
ag109
ag7070
ag196
aS'Technology'
p7141
atp7142
Rp7143
sg12
g13
(S'\x07\xe1\x01\x0f\x0b\x168\x00|\xae'
p7144
tp7145
Rp7146
sg17
g18
(S'\x07\xe1\x02\x0e'
p7147
tp7148
Rp7149
ssI1220511
(dp7150
g2
g3
((lp7151
g7082
ag82
ag1817
aS'Technology'
p7152
ag1608
atp7153
Rp7154
sg12
g13
(S'\x07\xe1\x01\x0f\x0b\x168\x00{\xae'
p7155
tp7156
Rp7157
sg17
g18
(S'\x07\xe1\x02\x0e'
p7158
tp7159
Rp7160
ssI1220512
(dp7161
g2
g3
((lp7162
S'Animals'
p7163
ag82
aS'Refugee'
p7164
ag494
ag7082
ag7083
ag28
atp7165
Rp7166
sg12
g13
(S'\x07\xe1\x01\x0f\x0b\x168\x00{\xc9'
p7167
tp7168
Rp7169
sg17
g18
(S'\x07\xe1\x02\x0e'
p7170
tp7171
Rp7172
ssI1220513
(dp7173
g2
g3
((lp7174
g123
ag82
ag1608
aS'Elderly'
p7175
ag1817
aS'Eco-friendly'
p7176
ag7082
aS'Technology'
p7177
atp7178
Rp7179
sg12
g13
(S'\x07\xe1\x01\x0f\x0b\x168\x00z\xfe'
p7180
tp7181
Rp7182
sg17
g18
(S'\x07\xe1\x02\x0e'
p7183
tp7184
Rp7185
ssI1220514
(dp7186
g2
g3
((lp7187
S'Supporting Family'
p7188
ag54
ag82
ag494
ag7082
ag7083
atp7189
Rp7190
sg12
g13
(S'\x07\xe1\x01\x0f\x0b\x168\x00y\xda'
p7191
tp7192
Rp7193
sg17
g18
(S'\x07\xe1\x02\x0e'
p7194
tp7195
Rp7196
ssI1220515
(dp7197
g2
g3
((lp7198
g82
ag1608
ag1817
aS'Eco-friendly'
p7199
aS'Islamic Finance'
p7200
ag7082
aS'Technology'
p7201
atp7202
Rp7203
sg12
g13
(S'\x07\xe1\x01\x0f\x0b\x168\x00z\x8a'
p7204
tp7205
Rp7206
sg17
g18
(S'\x07\xe1\x02\x0e'
p7207
tp7208
Rp7209
ssI1220517
(dp7210
g2
g3
((lp7211
g54
ag82
ag285
ag494
ag7082
ag7083
atp7212
Rp7213
sg12
g13
(S'\x07\xe1\x01\x0f\x0b\x168\x00y\x9e'
p7214
tp7215
Rp7216
sg17
g18
(S'\x07\xe1\x02\x0e'
p7217
tp7218
Rp7219
ssI1220519
(dp7220
g2
g3
((lp7221
g637
ag52
ag82
aS'Schooling'
p7222
aS'Female Education'
p7223
ag7082
ag196
atp7224
Rp7225
sg12
g13
(S'\x07\xe1\x01\x0f\x0b\x168\x00yX'
p7226
tp7227
Rp7228
sg17
g18
(S'\x07\xe1\x02\x0e'
p7229
tp7230
Rp7231
ssI1220520
(dp7232
g2
g3
((lp7233
g7082
ag82
ag345
atp7234
Rp7235
sg12
g13
(S'\x07\xe1\x01\x0f\x0b\x168\x00w<'
p7236
tp7237
Rp7238
sg17
g18
(S'\x07\xe1\x02\x0e'
p7239
tp7240
Rp7241
ssI1220522
(dp7242
g2
g3
((lp7243
g82
ag1608
ag1817
aS'Eco-friendly'
p7244
ag7200
ag7082
atp7245
Rp7246
sg12
g13
(S'\x07\xe1\x01\x0f\x0b\x168\x00z\xa7'
p7247
tp7248
Rp7249
sg17
g18
(S'\x07\xe1\x02\x0e'
p7250
tp7251
Rp7252
ssI1220523
(dp7253
g2
g3
((lp7254
S'Animals'
p7255
ag52
aS'Parent'
p7256
ag260
ag109
aS'Woman Owned Biz'
p7257
aS'Repeat Borrower'
p7258
ag28
atp7259
Rp7260
sg12
g13
(S'\x07\xe1\x01\x0f\x0b\x168\x00zO'
p7261
tp7262
Rp7263
sg17
g18
(S'\x07\xe1\x02\x0e'
p7264
tp7265
Rp7266
ssI1220531
(dp7267
g236
g3
((lp7268
S'Philippines'
p7269
ag238
ag240
atp7270
Rp7271
sg243
g18
(S'\x07\xe1\x02\x0e'
p7272
tp7273
Rp7274
ssI1220532
(dp7275
g2
g3
((lp7276
g25
aS'Woman Owned Biz'
p7277
ag333
ag210
ag198
atp7278
Rp7279
sg12
g13
(S'\x07\xe1\x01\x0f\x0b\x168\x00z\x15'
p7280
tp7281
Rp7282
sg17
g18
(S'\x07\xe1\x02\x0e'
p7283
tp7284
Rp7285
ssI1220533
(dp7286
g2
g3
((lp7287
g52
ag111
ag25
aS'Somalia'
p7288
ag7200
ag345
aS'Woman Owned Biz'
p7289
ag1981
atp7290
Rp7291
sg12
g13
(S'\x07\xe1\x01\x0f\x0b\x168\x00y\xf7'
p7292
tp7293
Rp7294
sg17
g18
(S'\x07\xe1\x02\x0e'
p7295
tp7296
Rp7297
ssI1220534
(dp7298
g2
g3
((lp7299
g54
aS'Israel'
p7300
ag52
ag109
ag111
atp7301
Rp7302
sg12
g13
(S'\x07\xe1\x01\x0f\x0b\x168\x00y\xbc'
p7303
tp7304
Rp7305
sg17
g18
(S'\x07\xe1\x02\x0e'
p7306
tp7307
Rp7308
ssI1220535
(dp7309
g2
g3
((lp7310
g7300
ag52
ag54
aS'Schooling'
p7311
ag109
ag111
aS'Woman Owned Biz'
p7312
atp7313
Rp7314
sg12
g13
(S'\x07\xe1\x01\x0f\x0b\x168\x00y\x02'
p7315
tp7316
Rp7317
sg17
g18
(S'\x07\xe1\x02\x0e'
p7318
tp7319
Rp7320
ssI1220536
(dp7321
g2
g3
((lp7322
g108
ag6
ag109
ag111
atp7323
Rp7324
sg12
g13
(S'\x07\xe1\x01\x0f\x0b\x168\x00x\xc0'
p7325
tp7326
Rp7327
sg17
g18
(S'\x07\xe1\x02\x0e'
p7328
tp7329
Rp7330
ssI1220537
(dp7331
g2
g3
((lp7332
g108
ag977
ag109
ag111
atp7333
Rp7334
sg12
g13
(S'\x07\xe1\x01\x0f\x0b\x168\x00x\xa1'
p7335
tp7336
Rp7337
sg17
g18
(S'\x07\xe1\x02\x0e'
p7338
tp7339
Rp7340
ssI1220551
(dp7341
g2
g3
((lp7342
S'Parent'
p7343
ag260
ag109
ag111
aS'Woman Owned Biz'
p7344
ag977
atp7345
Rp7346
sg12
g13
(S'\x07\xe1\x01\x0f\x0b\x168\x00v\x99'
p7347
tp7348
Rp7349
sg17
g18
(S'\x07\xe1\x02\x0e'
p7350
tp7351
Rp7352
ssI1220561
(dp7353
S'elements'
p7354
g3
((lp7355
S'Philippines'
p7356
aS'Retail'
p7357
aS'Asia'
p7358
aS'Underfunded Areas'
p7359
atp7360
Rp7361
sS'expired_at'
p7362
g18
(S'\x07\xe1\x02\x0e'
p7363
tp7364
Rp7365
ss.